opt subtitle "HI-TECH Software Omniscient Code Generator (Lite mode) build 6738"

opt pagewidth 120

	opt lm

	processor	16F877A
clrc	macro
	bcf	3,0
	endm
clrz	macro
	bcf	3,2
	endm
setc	macro
	bsf	3,0
	endm
setz	macro
	bsf	3,2
	endm
skipc	macro
	btfss	3,0
	endm
skipz	macro
	btfss	3,2
	endm
skipnc	macro
	btfsc	3,0
	endm
skipnz	macro
	btfsc	3,2
	endm
indf	equ	0
indf0	equ	0
pc	equ	2
pcl	equ	2
status	equ	3
fsr	equ	4
fsr0	equ	4
c	equ	1
z	equ	0
pclath	equ	10
	FNCALL	_main,_lcd_init
	FNCALL	_main,_show
	FNCALL	_main,_cmd
	FNCALL	_main,_uart_init
	FNCALL	_main,_show_number
	FNCALL	_main,_send_sms
	FNCALL	_main,_send_sms_with_time
	FNCALL	_send_sms_with_time,_int_to_str
	FNCALL	_send_sms_with_time,_send_sms
	FNCALL	_send_sms,_send_string_uart
	FNCALL	_send_sms,_send_char_uart
	FNCALL	_send_string_uart,_send_char_uart
	FNCALL	_int_to_str,___lwmod
	FNCALL	_int_to_str,___lwdiv
	FNCALL	_int_to_str,___awdiv
	FNCALL	_show_number,_dat
	FNCALL	_show_number,___lwmod
	FNCALL	_show_number,___lwdiv
	FNCALL	_show,_dat
	FNCALL	_lcd_init,_cmd
	FNROOT	_main
	global	send_sms_with_time@F565
	global	send_sms_with_time@F567
	global	_current_state
psect	idataBANK0,class=CODE,space=0,delta=2
global __pidataBANK0
__pidataBANK0:
	file	"C:\keerthu\Pic16f877a_Revision\productionline\project.c"
	line	243

;initializer for send_sms_with_time@F565
	retlw	04Ch
	retlw	069h
	retlw	06Eh
	retlw	065h
	retlw	020h
	retlw	053h
	retlw	074h
	retlw	06Fh
	retlw	070h
	retlw	070h
	retlw	065h
	retlw	064h
	retlw	03Ah
	retlw	020h
	retlw	0
	line	244

;initializer for send_sms_with_time@F567
	retlw	020h
	retlw	073h
	retlw	065h
	retlw	063h
	retlw	0Dh
	retlw	0Ah
	retlw	0
psect	idataBANK1,class=CODE,space=0,delta=2
global __pidataBANK1
__pidataBANK1:
	line	17

;initializer for _current_state
	retlw	02h
	global	_i
	global	_run_time
	global	_gsm_send_flag
	global	_PORTA
_PORTA	set	5
	global	_PORTB
_PORTB	set	6
	global	_PORTD
_PORTD	set	8
	global	_TXREG
_TXREG	set	25
	global	_CREN
_CREN	set	196
	global	_RA0
_RA0	set	40
	global	_RB0
_RB0	set	48
	global	_RB1
_RB1	set	49
	global	_RB2
_RB2	set	50
	global	_RB5
_RB5	set	53
	global	_SPEN
_SPEN	set	199
	global	_TXIF
_TXIF	set	100
	global	_ADCON1
_ADCON1	set	159
	global	_SPBRG
_SPBRG	set	153
	global	_TRISA
_TRISA	set	133
	global	_TRISB
_TRISB	set	134
	global	_TRISD
_TRISD	set	136
	global	_BRGH
_BRGH	set	1218
	global	_SYNC
_SYNC	set	1220
	global	_TRISC6
_TRISC6	set	1086
	global	_TRISC7
_TRISC7	set	1087
	global	_TXEN
_TXEN	set	1221
psect	strings,class=STRING,delta=2
global __pstrings
__pstrings:
;	global	stringdir,stringtab,__stringbase
stringtab:
;	String table - string pointers are 1 byte each
	btfsc	(btemp+1),7
	ljmp	stringcode
	bcf	status,7
	btfsc	(btemp+1),0
	bsf	status,7
	movf	indf,w
	incf fsr
skipnz
incf btemp+1
	return
stringcode:stringdir:
movlw high(stringdir)
movwf pclath
movf fsr,w
incf fsr
	addwf pc
__stringbase:
	retlw	0
psect	strings
	
STR_14:	
	retlw	65	;'A'
	retlw	84	;'T'
	retlw	43	;'+'
	retlw	67	;'C'
	retlw	77	;'M'
	retlw	71	;'G'
	retlw	83	;'S'
	retlw	61	;'='
	retlw	34	;'"'
	retlw	43	;'+'
	retlw	57	;'9'
	retlw	49	;'1'
	retlw	57	;'9'
	retlw	51	;'3'
	retlw	54	;'6'
	retlw	51	;'3'
	retlw	50	;'2'
	retlw	48	;'0'
	retlw	48	;'0'
	retlw	52	;'4'
	retlw	54	;'6'
	retlw	53	;'5'
	retlw	34	;'"'
	retlw	13
	retlw	10
	retlw	0
psect	strings
	
STR_9:	
	retlw	76	;'L'
	retlw	105	;'i'
	retlw	110	;'n'
	retlw	101	;'e'
	retlw	32	;' '
	retlw	83	;'S'
	retlw	116	;'t'
	retlw	111	;'o'
	retlw	112	;'p'
	retlw	112	;'p'
	retlw	101	;'e'
	retlw	100	;'d'
	retlw	32	;' '
	retlw	32	;' '
	retlw	32	;' '
	retlw	0
psect	strings
	
STR_5:	
	retlw	76	;'L'
	retlw	105	;'i'
	retlw	110	;'n'
	retlw	101	;'e'
	retlw	32	;' '
	retlw	82	;'R'
	retlw	117	;'u'
	retlw	110	;'n'
	retlw	110	;'n'
	retlw	105	;'i'
	retlw	110	;'n'
	retlw	103	;'g'
	retlw	32	;' '
	retlw	32	;' '
	retlw	32	;' '
	retlw	0
psect	strings
	
STR_2:	
	retlw	73	;'I'
	retlw	110	;'n'
	retlw	105	;'i'
	retlw	116	;'t'
	retlw	105	;'i'
	retlw	97	;'a'
	retlw	108	;'l'
	retlw	105	;'i'
	retlw	122	;'z'
	retlw	105	;'i'
	retlw	110	;'n'
	retlw	103	;'g'
	retlw	46	;'.'
	retlw	46	;'.'
	retlw	46	;'.'
	retlw	0
psect	strings
	
STR_1:	
	retlw	76	;'L'
	retlw	105	;'i'
	retlw	110	;'n'
	retlw	101	;'e'
	retlw	32	;' '
	retlw	77	;'M'
	retlw	111	;'o'
	retlw	110	;'n'
	retlw	105	;'i'
	retlw	116	;'t'
	retlw	111	;'o'
	retlw	114	;'r'
	retlw	105	;'i'
	retlw	110	;'n'
	retlw	103	;'g'
	retlw	0
psect	strings
	
STR_8:	
	retlw	76	;'L'
	retlw	105	;'i'
	retlw	110	;'n'
	retlw	101	;'e'
	retlw	32	;' '
	retlw	82	;'R'
	retlw	117	;'u'
	retlw	110	;'n'
	retlw	110	;'n'
	retlw	105	;'i'
	retlw	110	;'n'
	retlw	103	;'g'
	retlw	13
	retlw	10
	retlw	0
psect	strings
	
STR_3:	
	retlw	83	;'S'
	retlw	121	;'y'
	retlw	115	;'s'
	retlw	116	;'t'
	retlw	101	;'e'
	retlw	109	;'m'
	retlw	32	;' '
	retlw	82	;'R'
	retlw	101	;'e'
	retlw	97	;'a'
	retlw	100	;'d'
	retlw	121	;'y'
	retlw	0
psect	strings
	
STR_13:	
	retlw	65	;'A'
	retlw	84	;'T'
	retlw	43	;'+'
	retlw	67	;'C'
	retlw	77	;'M'
	retlw	71	;'G'
	retlw	70	;'F'
	retlw	61	;'='
	retlw	49	;'1'
	retlw	13
	retlw	10
	retlw	0
psect	strings
	
STR_7:	
	retlw	32	;' '
	retlw	115	;'s'
	retlw	101	;'e'
	retlw	99	;'c'
	retlw	32	;' '
	retlw	32	;' '
	retlw	0
psect	strings
	
STR_6:	
	retlw	84	;'T'
	retlw	105	;'i'
	retlw	109	;'m'
	retlw	101	;'e'
	retlw	58	;':'
	retlw	32	;' '
	retlw	0
psect	strings
	
STR_12:	
	retlw	65	;'A'
	retlw	84	;'T'
	retlw	13
	retlw	10
	retlw	0
psect	strings
STR_4	equ	STR_1+0
STR_10	equ	STR_6+0
STR_11	equ	STR_7+0
	file	"project.as"
	line	#
psect cinit,class=CODE,delta=2
global start_initialization
start_initialization:

psect	bssBANK0,class=BANK0,space=1
global __pbssBANK0
__pbssBANK0:
_i:
       ds      2

psect	dataBANK0,class=BANK0,space=1
global __pdataBANK0
__pdataBANK0:
	file	"C:\keerthu\Pic16f877a_Revision\productionline\project.c"
	line	243
send_sms_with_time@F565:
       ds      15

psect	dataBANK0
	file	"C:\keerthu\Pic16f877a_Revision\productionline\project.c"
	line	244
send_sms_with_time@F567:
       ds      7

psect	bssBANK1,class=BANK1,space=1
global __pbssBANK1
__pbssBANK1:
_run_time:
       ds      2

_gsm_send_flag:
       ds      1

psect	dataBANK1,class=BANK1,space=1
global __pdataBANK1
__pdataBANK1:
	file	"C:\keerthu\Pic16f877a_Revision\productionline\project.c"
	line	17
_current_state:
       ds      1

; Clear objects allocated to BANK0
psect cinit,class=CODE,delta=2
	clrf	((__pbssBANK0)+0)&07Fh
	clrf	((__pbssBANK0)+1)&07Fh
; Clear objects allocated to BANK1
psect cinit,class=CODE,delta=2
	bsf	status, 5	;RP0=1, select bank1
	bcf	status, 6	;RP1=0, select bank1
	clrf	((__pbssBANK1)+0)&07Fh
	clrf	((__pbssBANK1)+1)&07Fh
	clrf	((__pbssBANK1)+2)&07Fh
global btemp
psect inittext,class=CODE,delta=2
global init_fetch,btemp
;	Called with low address in FSR and high address in W
init_fetch:
	movf btemp,w
	movwf pclath
	movf btemp+1,w
	movwf pc
global init_ram
;Called with:
;	high address of idata address in btemp 
;	low address of idata address in btemp+1 
;	low address of data in FSR
;	high address + 1 of data in btemp-1
init_ram:
	fcall init_fetch
	movwf indf,f
	incf fsr,f
	movf fsr,w
	xorwf btemp-1,w
	btfsc status,2
	retlw 0
	incf btemp+1,f
	btfsc status,2
	incf btemp,f
	goto init_ram
; Initialize objects allocated to BANK1
	global __pidataBANK1
psect cinit,class=CODE,delta=2
	fcall	__pidataBANK1+0		;fetch initializer
	movwf	__pdataBANK1+0&07fh		
; Initialize objects allocated to BANK0
psect cinit,class=CODE,delta=2
global init_ram, __pidataBANK0
	bcf	status, 7	;select IRP bank0
	movlw low(__pdataBANK0+22)
	movwf btemp-1,f
	movlw high(__pidataBANK0)
	movwf btemp,f
	movlw low(__pidataBANK0)
	movwf btemp+1,f
	movlw low(__pdataBANK0)
	movwf fsr,f
	fcall init_ram
psect cinit,class=CODE,delta=2
global end_of_initialization

;End of C runtime variable initialization code

end_of_initialization:
clrf status
ljmp _main	;jump to C main() function
psect	cstackBANK1,class=BANK1,space=1
global __pcstackBANK1
__pcstackBANK1:
	global	send_sms_with_time@msg
send_sms_with_time@msg:	; 40 bytes @ 0x0
	ds	40
	global	send_sms_with_time@temp
send_sms_with_time@temp:	; 15 bytes @ 0x28
	ds	15
	global	send_sms_with_time@sec_text
send_sms_with_time@sec_text:	; 7 bytes @ 0x37
	ds	7
	global	send_sms_with_time@buf
send_sms_with_time@buf:	; 6 bytes @ 0x3E
	ds	6
	global	send_sms_with_time@j
send_sms_with_time@j:	; 2 bytes @ 0x44
	ds	2
	global	send_sms_with_time@j_388
send_sms_with_time@j_388:	; 2 bytes @ 0x46
	ds	2
	global	send_sms_with_time@j_389
send_sms_with_time@j_389:	; 2 bytes @ 0x48
	ds	2
	global	send_sms_with_time@k
send_sms_with_time@k:	; 2 bytes @ 0x4A
	ds	2
psect	cstackCOMMON,class=COMMON,space=1
global __pcstackCOMMON
__pcstackCOMMON:
	global	?_lcd_init
?_lcd_init:	; 0 bytes @ 0x0
	global	?_show
?_show:	; 0 bytes @ 0x0
	global	?_cmd
?_cmd:	; 0 bytes @ 0x0
	global	??_cmd
??_cmd:	; 0 bytes @ 0x0
	global	?_uart_init
?_uart_init:	; 0 bytes @ 0x0
	global	??_uart_init
??_uart_init:	; 0 bytes @ 0x0
	global	?_main
?_main:	; 0 bytes @ 0x0
	global	?_dat
?_dat:	; 0 bytes @ 0x0
	global	??_dat
??_dat:	; 0 bytes @ 0x0
	global	?_send_char_uart
?_send_char_uart:	; 0 bytes @ 0x0
	global	??_send_char_uart
??_send_char_uart:	; 0 bytes @ 0x0
	global	?___lwdiv
?___lwdiv:	; 2 bytes @ 0x0
	global	?___lwmod
?___lwmod:	; 2 bytes @ 0x0
	global	?___awdiv
?___awdiv:	; 2 bytes @ 0x0
	global	send_char_uart@c
send_char_uart@c:	; 1 bytes @ 0x0
	global	___lwdiv@divisor
___lwdiv@divisor:	; 2 bytes @ 0x0
	global	___lwmod@divisor
___lwmod@divisor:	; 2 bytes @ 0x0
	global	___awdiv@divisor
___awdiv@divisor:	; 2 bytes @ 0x0
	ds	1
	global	?_send_string_uart
?_send_string_uart:	; 0 bytes @ 0x1
	global	send_string_uart@s
send_string_uart@s:	; 2 bytes @ 0x1
	ds	1
	global	cmd@a
cmd@a:	; 1 bytes @ 0x2
	global	dat@b
dat@b:	; 1 bytes @ 0x2
	global	___lwdiv@dividend
___lwdiv@dividend:	; 2 bytes @ 0x2
	global	___lwmod@dividend
___lwmod@dividend:	; 2 bytes @ 0x2
	global	___awdiv@dividend
___awdiv@dividend:	; 2 bytes @ 0x2
	ds	1
	global	??_lcd_init
??_lcd_init:	; 0 bytes @ 0x3
	global	??_show
??_show:	; 0 bytes @ 0x3
	global	?_send_sms
?_send_sms:	; 0 bytes @ 0x3
	global	??_send_string_uart
??_send_string_uart:	; 0 bytes @ 0x3
	global	send_sms@message
send_sms@message:	; 2 bytes @ 0x3
	ds	1
	global	??___lwdiv
??___lwdiv:	; 0 bytes @ 0x4
	global	??___lwmod
??___lwmod:	; 0 bytes @ 0x4
	global	??___awdiv
??___awdiv:	; 0 bytes @ 0x4
	global	show@s
show@s:	; 1 bytes @ 0x4
	ds	1
	global	??_send_sms
??_send_sms:	; 0 bytes @ 0x5
	global	___lwmod@counter
___lwmod@counter:	; 1 bytes @ 0x5
	global	___awdiv@counter
___awdiv@counter:	; 1 bytes @ 0x5
	global	___lwdiv@quotient
___lwdiv@quotient:	; 2 bytes @ 0x5
	ds	1
	global	___awdiv@sign
___awdiv@sign:	; 1 bytes @ 0x6
	ds	1
	global	___lwdiv@counter
___lwdiv@counter:	; 1 bytes @ 0x7
	global	___awdiv@quotient
___awdiv@quotient:	; 2 bytes @ 0x7
	ds	1
	global	?_show_number
?_show_number:	; 0 bytes @ 0x8
	global	show_number@n
show_number@n:	; 2 bytes @ 0x8
	ds	1
	global	?_int_to_str
?_int_to_str:	; 0 bytes @ 0x9
	global	int_to_str@n
int_to_str@n:	; 2 bytes @ 0x9
	ds	1
	global	??_show_number
??_show_number:	; 0 bytes @ 0xA
	ds	1
	global	int_to_str@buf
int_to_str@buf:	; 1 bytes @ 0xB
	ds	1
	global	?_send_sms_with_time
?_send_sms_with_time:	; 0 bytes @ 0xC
	global	send_sms_with_time@t
send_sms_with_time@t:	; 2 bytes @ 0xC
	ds	2
psect	cstackBANK0,class=BANK0,space=1
global __pcstackBANK0
__pcstackBANK0:
	global	??_int_to_str
??_int_to_str:	; 0 bytes @ 0x0
	global	show_number@buf
show_number@buf:	; 6 bytes @ 0x0
	ds	3
	global	int_to_str@t
int_to_str@t:	; 1 bytes @ 0x3
	ds	1
	global	int_to_str@p
int_to_str@p:	; 2 bytes @ 0x4
	ds	2
	global	show_number@p
show_number@p:	; 2 bytes @ 0x6
	global	int_to_str@i
int_to_str@i:	; 2 bytes @ 0x6
	ds	2
	global	??_send_sms_with_time
??_send_sms_with_time:	; 0 bytes @ 0x8
	ds	4
	global	??_main
??_main:	; 0 bytes @ 0xC
	ds	3
;;Data sizes: Strings 149, constant 0, data 23, bss 5, persistent 0 stack 0
;;Auto spaces:   Size  Autos    Used
;; COMMON          14     14      14
;; BANK0           80     15      39
;; BANK1           80     76      80
;; BANK3           96      0       0
;; BANK2           96      0       0

;;
;; Pointer list with targets:

;; ?___awdiv	int  size(1) Largest target is 0
;;
;; ?___lwdiv	unsigned int  size(1) Largest target is 0
;;
;; ?___lwmod	unsigned int  size(1) Largest target is 0
;;
;; send_sms@message	PTR const unsigned char  size(2) Largest target is 40
;;		 -> send_sms_with_time@msg(BANK1[40]), STR_8(CODE[15]), 
;;
;; send_string_uart@s	PTR const unsigned char  size(2) Largest target is 40
;;		 -> send_sms_with_time@msg(BANK1[40]), STR_14(CODE[26]), STR_13(CODE[12]), STR_12(CODE[5]), 
;;		 -> STR_8(CODE[15]), 
;;
;; int_to_str@buf	PTR unsigned char  size(1) Largest target is 6
;;		 -> send_sms_with_time@buf(BANK1[6]), 
;;
;; show@s	PTR const unsigned char  size(1) Largest target is 16
;;		 -> STR_11(CODE[7]), STR_10(CODE[7]), STR_9(CODE[16]), STR_7(CODE[7]), 
;;		 -> STR_6(CODE[7]), STR_5(CODE[16]), STR_4(CODE[16]), STR_3(CODE[13]), 
;;		 -> STR_2(CODE[16]), STR_1(CODE[16]), 
;;


;;
;; Critical Paths under _main in COMMON
;;
;;   _main->_send_sms_with_time
;;   _send_sms_with_time->_int_to_str
;;   _send_sms->_send_string_uart
;;   _send_string_uart->_send_char_uart
;;   _int_to_str->___awdiv
;;   _show_number->___lwdiv
;;   _show->_dat
;;   _lcd_init->_cmd
;;
;; Critical Paths under _main in BANK0
;;
;;   _main->_send_sms_with_time
;;   _send_sms_with_time->_int_to_str
;;
;; Critical Paths under _main in BANK1
;;
;;   _main->_send_sms_with_time
;;
;; Critical Paths under _main in BANK3
;;
;;   None.
;;
;; Critical Paths under _main in BANK2
;;
;;   None.

;;
;;Main: autosize = 0, tempsize = 3, incstack = 0, save=0
;;

;;
;;Call Graph Tables:
;;
;; ---------------------------------------------------------------------------------
;; (Depth) Function   	        Calls       Base Space   Used Autos Params    Refs
;; ---------------------------------------------------------------------------------
;; (0) _main                                                 3     3      0    2649
;;                                             12 BANK0      3     3      0
;;                           _lcd_init
;;                               _show
;;                                _cmd
;;                          _uart_init
;;                        _show_number
;;                           _send_sms
;;                 _send_sms_with_time
;; ---------------------------------------------------------------------------------
;; (1) _send_sms_with_time                                  82    80      2    1792
;;                                             12 COMMON     2     0      2
;;                                              8 BANK0      4     4      0
;;                                              0 BANK1     76    76      0
;;                         _int_to_str
;;                           _send_sms
;; ---------------------------------------------------------------------------------
;; (2) _send_sms                                             5     3      2     111
;;                                              3 COMMON     5     3      2
;;                   _send_string_uart
;;                     _send_char_uart
;; ---------------------------------------------------------------------------------
;; (3) _send_string_uart                                     2     0      2      67
;;                                              1 COMMON     2     0      2
;;                     _send_char_uart
;; ---------------------------------------------------------------------------------
;; (2) _int_to_str                                          11     8      3    1133
;;                                              9 COMMON     3     0      3
;;                                              0 BANK0      8     8      0
;;                            ___lwmod
;;                            ___lwdiv
;;                            ___awdiv
;; ---------------------------------------------------------------------------------
;; (1) _show_number                                         11     9      2     569
;;                                              8 COMMON     3     1      2
;;                                              0 BANK0      8     8      0
;;                                _dat
;;                            ___lwmod
;;                            ___lwdiv
;; ---------------------------------------------------------------------------------
;; (1) _show                                                 2     2      0      89
;;                                              3 COMMON     2     2      0
;;                                _dat
;; ---------------------------------------------------------------------------------
;; (1) _lcd_init                                             0     0      0      44
;;                                _cmd
;; ---------------------------------------------------------------------------------
;; (3) ___awdiv                                              9     5      4     300
;;                                              0 COMMON     9     5      4
;; ---------------------------------------------------------------------------------
;; (3) ___lwmod                                              6     2      4     159
;;                                              0 COMMON     6     2      4
;; ---------------------------------------------------------------------------------
;; (3) ___lwdiv                                              8     4      4     162
;;                                              0 COMMON     8     4      4
;; ---------------------------------------------------------------------------------
;; (3) _send_char_uart                                       1     1      0      22
;;                                              0 COMMON     1     1      0
;; ---------------------------------------------------------------------------------
;; (2) _dat                                                  3     3      0      44
;;                                              0 COMMON     3     3      0
;; ---------------------------------------------------------------------------------
;; (1) _uart_init                                            0     0      0       0
;; ---------------------------------------------------------------------------------
;; (1) _cmd                                                  3     3      0      44
;;                                              0 COMMON     3     3      0
;; ---------------------------------------------------------------------------------
;; Estimated maximum stack depth 3
;; ---------------------------------------------------------------------------------

;; Call Graph Graphs:

;; _main (ROOT)
;;   _lcd_init
;;     _cmd
;;   _show
;;     _dat
;;   _cmd
;;   _uart_init
;;   _show_number
;;     _dat
;;     ___lwmod
;;     ___lwdiv
;;   _send_sms
;;     _send_string_uart
;;       _send_char_uart
;;     _send_char_uart
;;   _send_sms_with_time
;;     _int_to_str
;;       ___lwmod
;;       ___lwdiv
;;       ___awdiv
;;     _send_sms
;;       _send_string_uart
;;         _send_char_uart
;;       _send_char_uart
;;

;; Address spaces:

;;Name               Size   Autos  Total    Cost      Usage
;;BANK3               60      0       0       9        0.0%
;;BITBANK3            60      0       0       8        0.0%
;;SFR3                 0      0       0       4        0.0%
;;BITSFR3              0      0       0       4        0.0%
;;BANK2               60      0       0      11        0.0%
;;BITBANK2            60      0       0      10        0.0%
;;SFR2                 0      0       0       5        0.0%
;;BITSFR2              0      0       0       5        0.0%
;;SFR1                 0      0       0       2        0.0%
;;BITSFR1              0      0       0       2        0.0%
;;BANK1               50     4C      50       7      100.0%
;;BITBANK1            50      0       0       6        0.0%
;;CODE                 0      0       0       0        0.0%
;;DATA                 0      0      89      12        0.0%
;;ABS                  0      0      85       3        0.0%
;;NULL                 0      0       0       0        0.0%
;;STACK                0      0       4       2        0.0%
;;BANK0               50      F      27       5       48.8%
;;BITBANK0            50      0       0       4        0.0%
;;SFR0                 0      0       0       1        0.0%
;;BITSFR0              0      0       0       1        0.0%
;;COMMON               E      E       E       1      100.0%
;;BITCOMMON            E      0       0       0        0.0%
;;EEDATA             100      0       0       0        0.0%

	global	_main
psect	maintext,global,class=CODE,delta=2
global __pmaintext
__pmaintext:

;; *************** function _main *****************
;; Defined at:
;;		line 34 in file "C:\keerthu\Pic16f877a_Revision\productionline\project.c"
;; Parameters:    Size  Location     Type
;;		None
;; Auto vars:     Size  Location     Type
;;		None
;; Return value:  Size  Location     Type
;;		None               void
;; Registers used:
;;		wreg, fsr0l, fsr0h, status,2, status,0, btemp+1, pclath, cstack
;; Tracked objects:
;;		On entry : 17F/0
;;		On exit  : 0/0
;;		Unchanged: 0/0
;; Data sizes:     COMMON   BANK0   BANK1   BANK3   BANK2
;;      Params:         0       0       0       0       0
;;      Locals:         0       0       0       0       0
;;      Temps:          0       3       0       0       0
;;      Totals:         0       3       0       0       0
;;Total ram usage:        3 bytes
;; Hardware stack levels required when called:    4
;; This function calls:
;;		_lcd_init
;;		_show
;;		_cmd
;;		_uart_init
;;		_show_number
;;		_send_sms
;;		_send_sms_with_time
;; This function is called by:
;;		Startup code after reset
;; This function uses a non-reentrant model
;;
psect	maintext
	file	"C:\keerthu\Pic16f877a_Revision\productionline\project.c"
	line	34
	global	__size_of_main
	__size_of_main	equ	__end_of_main-_main
	
_main:	
	opt	stack 4
; Regs used in _main: [wreg-fsr0h+status,2+status,0+btemp+1+pclath+cstack]
	line	35
	
l2521:	
;project.c: 35: TRISA = 0xFF;
	movlw	(0FFh)
	bsf	status, 5	;RP0=1, select bank1
	bcf	status, 6	;RP1=0, select bank1
	movwf	(133)^080h	;volatile
	line	36
;project.c: 36: PORTA = 0xFF;
	movlw	(0FFh)
	bcf	status, 5	;RP0=0, select bank0
	bcf	status, 6	;RP1=0, select bank0
	movwf	(5)	;volatile
	line	38
	
l2523:	
;project.c: 38: TRISB = 0x00;
	bsf	status, 5	;RP0=1, select bank1
	bcf	status, 6	;RP1=0, select bank1
	clrf	(134)^080h	;volatile
	line	39
	
l2525:	
;project.c: 39: PORTB = 0x00;
	bcf	status, 5	;RP0=0, select bank0
	bcf	status, 6	;RP1=0, select bank0
	clrf	(6)	;volatile
	line	40
	
l2527:	
;project.c: 40: RB5 = 0;
	bcf	(53/8),(53)&7
	line	42
;project.c: 42: ADCON1 = 0x06;
	movlw	(06h)
	bsf	status, 5	;RP0=1, select bank1
	bcf	status, 6	;RP1=0, select bank1
	movwf	(159)^080h	;volatile
	line	44
	
l2529:	
;project.c: 44: lcd_init();
	fcall	_lcd_init
	line	45
	
l2531:	
;project.c: 45: show("Line Monitoring");
	movlw	((STR_1-__stringbase))&0ffh
	fcall	_show
	line	46
	
l2533:	
;project.c: 46: cmd(0xC0);
	movlw	(0C0h)
	fcall	_cmd
	line	47
	
l2535:	
;project.c: 47: show("Initializing...");
	movlw	((STR_2-__stringbase))&0ffh
	fcall	_show
	line	48
;project.c: 48: _delay((unsigned long)((1500)*(8000000/4000.0)));
	opt asmopt_off
movlw  16
	bcf	status, 5	;RP0=0, select bank0
	bcf	status, 6	;RP1=0, select bank0
movwf	((??_main+0)+0+2),f
movlw	42
movwf	((??_main+0)+0+1),f
	movlw	22
movwf	((??_main+0)+0),f
u2937:
	decfsz	((??_main+0)+0),f
	goto	u2937
	decfsz	((??_main+0)+0+1),f
	goto	u2937
	decfsz	((??_main+0)+0+2),f
	goto	u2937
	nop2
opt asmopt_on

	line	50
	
l2537:	
;project.c: 50: uart_init();
	fcall	_uart_init
	line	52
	
l2539:	
;project.c: 52: cmd(0x01);
	movlw	(01h)
	fcall	_cmd
	line	53
	
l2541:	
;project.c: 53: _delay((unsigned long)((20)*(8000000/4000.0)));
	opt asmopt_off
movlw	52
	bcf	status, 5	;RP0=0, select bank0
	bcf	status, 6	;RP1=0, select bank0
movwf	((??_main+0)+0+1),f
	movlw	241
movwf	((??_main+0)+0),f
u2947:
	decfsz	((??_main+0)+0),f
	goto	u2947
	decfsz	((??_main+0)+0+1),f
	goto	u2947
	nop2
opt asmopt_on

	line	54
	
l2543:	
;project.c: 54: show("System Ready");
	movlw	((STR_3-__stringbase))&0ffh
	fcall	_show
	line	55
	
l2545:	
;project.c: 55: _delay((unsigned long)((1000)*(8000000/4000.0)));
	opt asmopt_off
movlw  11
	bcf	status, 5	;RP0=0, select bank0
	bcf	status, 6	;RP1=0, select bank0
movwf	((??_main+0)+0+2),f
movlw	28
movwf	((??_main+0)+0+1),f
	movlw	99
movwf	((??_main+0)+0),f
u2957:
	decfsz	((??_main+0)+0),f
	goto	u2957
	decfsz	((??_main+0)+0+1),f
	goto	u2957
	decfsz	((??_main+0)+0+2),f
	goto	u2957
	clrwdt
opt asmopt_on

	line	56
	
l2547:	
;project.c: 56: cmd(0x01);
	movlw	(01h)
	fcall	_cmd
	line	57
	
l2549:	
;project.c: 57: show("Line Monitoring");
	movlw	((STR_4-__stringbase))&0ffh
	fcall	_show
	line	58
	
l2551:	
;project.c: 58: _delay((unsigned long)((1000)*(8000000/4000.0)));
	opt asmopt_off
movlw  11
	bcf	status, 5	;RP0=0, select bank0
	bcf	status, 6	;RP1=0, select bank0
movwf	((??_main+0)+0+2),f
movlw	28
movwf	((??_main+0)+0+1),f
	movlw	99
movwf	((??_main+0)+0),f
u2967:
	decfsz	((??_main+0)+0),f
	goto	u2967
	decfsz	((??_main+0)+0+1),f
	goto	u2967
	decfsz	((??_main+0)+0+2),f
	goto	u2967
	clrwdt
opt asmopt_on

	goto	l2553
	line	59
;project.c: 59: while(1)
	
l583:	
	line	62
	
l2553:	
;project.c: 60: {
;project.c: 62: if(RA0 == 0)
	bcf	status, 5	;RP0=0, select bank0
	bcf	status, 6	;RP1=0, select bank0
	btfsc	(40/8),(40)&7
	goto	u2891
	goto	u2890
u2891:
	goto	l2583
u2890:
	line	65
	
l2555:	
;project.c: 63: {
;project.c: 65: if(current_state != 1)
	bsf	status, 5	;RP0=1, select bank1
	bcf	status, 6	;RP1=0, select bank1
	movf	(_current_state)^080h,w
	xorlw	01h
	skipnz
	goto	u2901
	goto	u2900
u2901:
	goto	l2561
u2900:
	line	67
	
l2557:	
;project.c: 66: {
;project.c: 67: current_state = 1;
	clrf	(_current_state)^080h
	bsf	status,0
	rlf	(_current_state)^080h,f
	line	68
;project.c: 68: gsm_send_flag = 1;
	clrf	(_gsm_send_flag)^080h
	bsf	status,0
	rlf	(_gsm_send_flag)^080h,f
	line	69
	
l2559:	
;project.c: 69: run_time = 0;
	movlw	low(0)
	movwf	(_run_time)^080h
	movlw	high(0)
	movwf	((_run_time)^080h)+1
	goto	l2561
	line	70
	
l585:	
	line	73
	
l2561:	
;project.c: 70: }
;project.c: 73: cmd(0x80);
	movlw	(080h)
	fcall	_cmd
	line	74
	
l2563:	
;project.c: 74: show("Line Running   ");
	movlw	((STR_5-__stringbase))&0ffh
	fcall	_show
	line	75
	
l2565:	
;project.c: 75: cmd(0xC0);
	movlw	(0C0h)
	fcall	_cmd
	line	76
	
l2567:	
;project.c: 76: show("Time: ");
	movlw	((STR_6-__stringbase))&0ffh
	fcall	_show
	line	77
	
l2569:	
;project.c: 77: show_number(run_time);
	bsf	status, 5	;RP0=1, select bank1
	bcf	status, 6	;RP1=0, select bank1
	movf	(_run_time+1)^080h,w
	clrf	(?_show_number+1)
	addwf	(?_show_number+1)
	movf	(_run_time)^080h,w
	clrf	(?_show_number)
	addwf	(?_show_number)

	fcall	_show_number
	line	78
	
l2571:	
;project.c: 78: show(" sec  ");
	movlw	((STR_7-__stringbase))&0ffh
	fcall	_show
	line	80
	
l2573:	
;project.c: 80: RB5 = 0;
	bcf	status, 5	;RP0=0, select bank0
	bcf	status, 6	;RP1=0, select bank0
	bcf	(53/8),(53)&7
	line	81
	
l2575:	
;project.c: 81: run_time++;
	movlw	low(01h)
	bsf	status, 5	;RP0=1, select bank1
	bcf	status, 6	;RP1=0, select bank1
	addwf	(_run_time)^080h,f
	skipnc
	incf	(_run_time+1)^080h,f
	movlw	high(01h)
	addwf	(_run_time+1)^080h,f
	line	84
	
l2577:	
;project.c: 84: if(gsm_send_flag)
	movf	(_gsm_send_flag)^080h,w
	skipz
	goto	u2910
	goto	l2599
u2910:
	line	86
	
l2579:	
;project.c: 85: {
;project.c: 86: send_sms("Line Running\r\n");
	movlw	low((STR_8-__stringbase))
	movwf	(?_send_sms)
	movlw	80h
	movwf	(?_send_sms+1)
	fcall	_send_sms
	line	87
	
l2581:	
;project.c: 87: gsm_send_flag = 0;
	clrc
	movlw	0
	btfsc	status,0
	movlw	1
	bsf	status, 5	;RP0=1, select bank1
	bcf	status, 6	;RP1=0, select bank1
	movwf	(_gsm_send_flag)^080h
	goto	l2599
	line	88
	
l586:	
	line	89
;project.c: 88: }
;project.c: 89: }
	goto	l2599
	line	90
	
l584:	
	line	93
	
l2583:	
;project.c: 90: else
;project.c: 91: {
;project.c: 93: cmd(0x80);
	movlw	(080h)
	fcall	_cmd
	line	94
	
l2585:	
;project.c: 94: show("Line Stopped   ");
	movlw	((STR_9-__stringbase))&0ffh
	fcall	_show
	line	95
	
l2587:	
;project.c: 95: cmd(0xC0);
	movlw	(0C0h)
	fcall	_cmd
	line	96
;project.c: 96: show("Time: ");
	movlw	((STR_10-__stringbase))&0ffh
	fcall	_show
	line	97
;project.c: 97: show_number(run_time);
	bsf	status, 5	;RP0=1, select bank1
	bcf	status, 6	;RP1=0, select bank1
	movf	(_run_time+1)^080h,w
	clrf	(?_show_number+1)
	addwf	(?_show_number+1)
	movf	(_run_time)^080h,w
	clrf	(?_show_number)
	addwf	(?_show_number)

	fcall	_show_number
	line	98
;project.c: 98: show(" sec  ");
	movlw	((STR_11-__stringbase))&0ffh
	fcall	_show
	line	100
	
l2589:	
;project.c: 100: RB5 = 1;
	bcf	status, 5	;RP0=0, select bank0
	bcf	status, 6	;RP1=0, select bank0
	bsf	(53/8),(53)&7
	line	103
	
l2591:	
;project.c: 103: if(current_state != 0)
	bsf	status, 5	;RP0=1, select bank1
	bcf	status, 6	;RP1=0, select bank1
	movf	(_current_state)^080h,w
	skipz
	goto	u2920
	goto	l2599
u2920:
	line	105
	
l2593:	
;project.c: 104: {
;project.c: 105: current_state = 0;
	clrc
	movlw	0
	btfsc	status,0
	movlw	1
	movwf	(_current_state)^080h
	line	106
	
l2595:	
;project.c: 106: send_sms_with_time(run_time);
	movf	(_run_time+1)^080h,w
	clrf	(?_send_sms_with_time+1)
	addwf	(?_send_sms_with_time+1)
	movf	(_run_time)^080h,w
	clrf	(?_send_sms_with_time)
	addwf	(?_send_sms_with_time)

	fcall	_send_sms_with_time
	line	107
	
l2597:	
;project.c: 107: run_time = 0;
	movlw	low(0)
	bsf	status, 5	;RP0=1, select bank1
	bcf	status, 6	;RP1=0, select bank1
	movwf	(_run_time)^080h
	movlw	high(0)
	movwf	((_run_time)^080h)+1
	goto	l2599
	line	108
	
l588:	
	goto	l2599
	line	109
	
l587:	
	line	111
	
l2599:	
;project.c: 108: }
;project.c: 109: }
;project.c: 111: _delay((unsigned long)((1000)*(8000000/4000.0)));
	opt asmopt_off
movlw  11
	bcf	status, 5	;RP0=0, select bank0
	bcf	status, 6	;RP1=0, select bank0
movwf	((??_main+0)+0+2),f
movlw	28
movwf	((??_main+0)+0+1),f
	movlw	99
movwf	((??_main+0)+0),f
u2977:
	decfsz	((??_main+0)+0),f
	goto	u2977
	decfsz	((??_main+0)+0+1),f
	goto	u2977
	decfsz	((??_main+0)+0+2),f
	goto	u2977
	clrwdt
opt asmopt_on

	goto	l2553
	line	112
	
l589:	
	line	59
	goto	l2553
	
l590:	
	line	113
	
l591:	
	global	start
	ljmp	start
	opt stack 0
GLOBAL	__end_of_main
	__end_of_main:
;; =============== function _main ends ============

	signat	_main,88
	global	_send_sms_with_time
psect	text334,local,class=CODE,delta=2
global __ptext334
__ptext334:

;; *************** function _send_sms_with_time *****************
;; Defined at:
;;		line 237 in file "C:\keerthu\Pic16f877a_Revision\productionline\project.c"
;; Parameters:    Size  Location     Type
;;  t               2   12[COMMON] unsigned int 
;; Auto vars:     Size  Location     Type
;;  j               2   72[BANK1 ] int 
;;  j               2   70[BANK1 ] int 
;;  j               2   68[BANK1 ] int 
;;  msg            40    0[BANK1 ] unsigned char [40]
;;  temp           15   40[BANK1 ] unsigned char [15]
;;  sec_text        7   55[BANK1 ] unsigned char [7]
;;  buf             6   62[BANK1 ] unsigned char [6]
;;  k               2   74[BANK1 ] int 
;; Return value:  Size  Location     Type
;;		None               void
;; Registers used:
;;		wreg, fsr0l, fsr0h, status,2, status,0, btemp+1, pclath, cstack
;; Tracked objects:
;;		On entry : 0/0
;;		On exit  : 0/0
;;		Unchanged: 0/0
;; Data sizes:     COMMON   BANK0   BANK1   BANK3   BANK2
;;      Params:         2       0       0       0       0
;;      Locals:         0       0      76       0       0
;;      Temps:          0       4       0       0       0
;;      Totals:         2       4      76       0       0
;;Total ram usage:       82 bytes
;; Hardware stack levels used:    1
;; Hardware stack levels required when called:    3
;; This function calls:
;;		_int_to_str
;;		_send_sms
;; This function is called by:
;;		_main
;; This function uses a non-reentrant model
;;
psect	text334
	file	"C:\keerthu\Pic16f877a_Revision\productionline\project.c"
	line	237
	global	__size_of_send_sms_with_time
	__size_of_send_sms_with_time	equ	__end_of_send_sms_with_time-_send_sms_with_time
	
_send_sms_with_time:	
	opt	stack 4
; Regs used in _send_sms_with_time: [wreg-fsr0h+status,2+status,0+btemp+1+pclath+cstack]
	line	240
	
l2485:	
;project.c: 238: char msg[40];
;project.c: 239: char buf[6];
;project.c: 240: int_to_str(t, buf);
	movf	(send_sms_with_time@t+1),w
	clrf	(?_int_to_str+1)
	addwf	(?_int_to_str+1)
	movf	(send_sms_with_time@t),w
	clrf	(?_int_to_str)
	addwf	(?_int_to_str)

	movlw	(send_sms_with_time@buf)&0ffh
	bcf	status, 5	;RP0=0, select bank0
	bcf	status, 6	;RP1=0, select bank0
	movwf	(??_send_sms_with_time+0)+0
	movf	(??_send_sms_with_time+0)+0,w
	movwf	0+(?_int_to_str)+02h
	fcall	_int_to_str
	line	242
	
l2487:	
;project.c: 242: int k = 0;
	movlw	low(0)
	bsf	status, 5	;RP0=1, select bank1
	bcf	status, 6	;RP1=0, select bank1
	movwf	(send_sms_with_time@k)^080h
	movlw	high(0)
	movwf	((send_sms_with_time@k)^080h)+1
	line	243
	
l2489:	
;project.c: 243: char temp[] = "Line Stopped: ";
	movlw	(send_sms_with_time@temp)&0ffh
	movwf	fsr0
	movlw	low(send_sms_with_time@F565)
	bcf	status, 5	;RP0=0, select bank0
	bcf	status, 6	;RP1=0, select bank0
	movwf	(??_send_sms_with_time+0)+0
	movf	fsr0,w
	movwf	((??_send_sms_with_time+0)+0+1)
	movlw	15
	movwf	((??_send_sms_with_time+0)+0+2)
u2840:
	movf	(??_send_sms_with_time+0)+0,w
	movwf	fsr0
	bcf	status, 7	;select IRP bank0
	
	movf	indf,w
	movwf	((??_send_sms_with_time+0)+0+3)
	incf	(??_send_sms_with_time+0)+0,f
	movf	((??_send_sms_with_time+0)+0+1),w
	movwf	fsr0
	
	movf	((??_send_sms_with_time+0)+0+3),w
	movwf	indf
	incf	((??_send_sms_with_time+0)+0+1),f
	decfsz	((??_send_sms_with_time+0)+0+2),f
	goto	u2840
	line	244
	
l2491:	
;project.c: 244: char sec_text[] = " sec\r\n";
	movlw	(send_sms_with_time@sec_text)&0ffh
	movwf	fsr0
	movlw	low(send_sms_with_time@F567)
	movwf	(??_send_sms_with_time+0)+0
	movf	fsr0,w
	movwf	((??_send_sms_with_time+0)+0+1)
	movlw	7
	movwf	((??_send_sms_with_time+0)+0+2)
u2850:
	movf	(??_send_sms_with_time+0)+0,w
	movwf	fsr0
	bcf	status, 7	;select IRP bank0
	
	movf	indf,w
	movwf	((??_send_sms_with_time+0)+0+3)
	incf	(??_send_sms_with_time+0)+0,f
	movf	((??_send_sms_with_time+0)+0+1),w
	movwf	fsr0
	
	movf	((??_send_sms_with_time+0)+0+3),w
	movwf	indf
	incf	((??_send_sms_with_time+0)+0+1),f
	decfsz	((??_send_sms_with_time+0)+0+2),f
	goto	u2850
	line	246
	
l2493:	
;project.c: 246: for(int j = 0; temp[j] != '\0'; j++)
	movlw	low(0)
	bsf	status, 5	;RP0=1, select bank1
	bcf	status, 6	;RP1=0, select bank1
	movwf	(send_sms_with_time@j)^080h
	movlw	high(0)
	movwf	((send_sms_with_time@j)^080h)+1
	goto	l659
	line	247
	
l660:	
	
l2495:	
;project.c: 247: msg[k++] = temp[j];
	movf	(send_sms_with_time@j)^080h,w
	addlw	send_sms_with_time@temp&0ffh
	movwf	fsr0
	movf	indf,w
	bcf	status, 5	;RP0=0, select bank0
	bcf	status, 6	;RP1=0, select bank0
	movwf	(??_send_sms_with_time+0)+0
	bsf	status, 5	;RP0=1, select bank1
	bcf	status, 6	;RP1=0, select bank1
	movf	(send_sms_with_time@k)^080h,w
	addlw	send_sms_with_time@msg&0ffh
	movwf	fsr0
	bcf	status, 5	;RP0=0, select bank0
	bcf	status, 6	;RP1=0, select bank0
	movf	(??_send_sms_with_time+0)+0,w
	movwf	indf
	
l2497:	
	movlw	low(01h)
	bsf	status, 5	;RP0=1, select bank1
	bcf	status, 6	;RP1=0, select bank1
	addwf	(send_sms_with_time@k)^080h,f
	skipnc
	incf	(send_sms_with_time@k+1)^080h,f
	movlw	high(01h)
	addwf	(send_sms_with_time@k+1)^080h,f
	line	246
	
l2499:	
	movlw	low(01h)
	addwf	(send_sms_with_time@j)^080h,f
	skipnc
	incf	(send_sms_with_time@j+1)^080h,f
	movlw	high(01h)
	addwf	(send_sms_with_time@j+1)^080h,f
	
l659:	
	movf	(send_sms_with_time@j)^080h,w
	addlw	send_sms_with_time@temp&0ffh
	movwf	fsr0
	movf	indf,f
	skipz
	goto	u2861
	goto	u2860
u2861:
	goto	l2495
u2860:
	goto	l2501
	
l661:	
	line	249
	
l2501:	
;project.c: 249: for(int j = 0; buf[j] != '\0'; j++)
	movlw	low(0)
	movwf	(send_sms_with_time@j_388)^080h
	movlw	high(0)
	movwf	((send_sms_with_time@j_388)^080h)+1
	goto	l662
	line	250
	
l663:	
	
l2503:	
;project.c: 250: msg[k++] = buf[j];
	movf	(send_sms_with_time@j_388)^080h,w
	addlw	send_sms_with_time@buf&0ffh
	movwf	fsr0
	movf	indf,w
	bcf	status, 5	;RP0=0, select bank0
	bcf	status, 6	;RP1=0, select bank0
	movwf	(??_send_sms_with_time+0)+0
	bsf	status, 5	;RP0=1, select bank1
	bcf	status, 6	;RP1=0, select bank1
	movf	(send_sms_with_time@k)^080h,w
	addlw	send_sms_with_time@msg&0ffh
	movwf	fsr0
	bcf	status, 5	;RP0=0, select bank0
	bcf	status, 6	;RP1=0, select bank0
	movf	(??_send_sms_with_time+0)+0,w
	movwf	indf
	
l2505:	
	movlw	low(01h)
	bsf	status, 5	;RP0=1, select bank1
	bcf	status, 6	;RP1=0, select bank1
	addwf	(send_sms_with_time@k)^080h,f
	skipnc
	incf	(send_sms_with_time@k+1)^080h,f
	movlw	high(01h)
	addwf	(send_sms_with_time@k+1)^080h,f
	line	249
	
l2507:	
	movlw	low(01h)
	addwf	(send_sms_with_time@j_388)^080h,f
	skipnc
	incf	(send_sms_with_time@j_388+1)^080h,f
	movlw	high(01h)
	addwf	(send_sms_with_time@j_388+1)^080h,f
	
l662:	
	movf	(send_sms_with_time@j_388)^080h,w
	addlw	send_sms_with_time@buf&0ffh
	movwf	fsr0
	movf	indf,f
	skipz
	goto	u2871
	goto	u2870
u2871:
	goto	l2503
u2870:
	goto	l2509
	
l664:	
	line	253
	
l2509:	
;project.c: 253: for(int j = 0; sec_text[j] != '\0'; j++)
	movlw	low(0)
	movwf	(send_sms_with_time@j_389)^080h
	movlw	high(0)
	movwf	((send_sms_with_time@j_389)^080h)+1
	goto	l665
	line	254
	
l666:	
	
l2511:	
;project.c: 254: msg[k++] = sec_text[j];
	movf	(send_sms_with_time@j_389)^080h,w
	addlw	send_sms_with_time@sec_text&0ffh
	movwf	fsr0
	movf	indf,w
	bcf	status, 5	;RP0=0, select bank0
	bcf	status, 6	;RP1=0, select bank0
	movwf	(??_send_sms_with_time+0)+0
	bsf	status, 5	;RP0=1, select bank1
	bcf	status, 6	;RP1=0, select bank1
	movf	(send_sms_with_time@k)^080h,w
	addlw	send_sms_with_time@msg&0ffh
	movwf	fsr0
	bcf	status, 5	;RP0=0, select bank0
	bcf	status, 6	;RP1=0, select bank0
	movf	(??_send_sms_with_time+0)+0,w
	movwf	indf
	
l2513:	
	movlw	low(01h)
	bsf	status, 5	;RP0=1, select bank1
	bcf	status, 6	;RP1=0, select bank1
	addwf	(send_sms_with_time@k)^080h,f
	skipnc
	incf	(send_sms_with_time@k+1)^080h,f
	movlw	high(01h)
	addwf	(send_sms_with_time@k+1)^080h,f
	line	253
	
l2515:	
	movlw	low(01h)
	addwf	(send_sms_with_time@j_389)^080h,f
	skipnc
	incf	(send_sms_with_time@j_389+1)^080h,f
	movlw	high(01h)
	addwf	(send_sms_with_time@j_389+1)^080h,f
	
l665:	
	movf	(send_sms_with_time@j_389)^080h,w
	addlw	send_sms_with_time@sec_text&0ffh
	movwf	fsr0
	movf	indf,f
	skipz
	goto	u2881
	goto	u2880
u2881:
	goto	l2511
u2880:
	goto	l2517
	
l667:	
	line	256
	
l2517:	
;project.c: 256: msg[k] = '\0';
	clrc
	movf	(send_sms_with_time@k)^080h,w
	addlw	send_sms_with_time@msg&0ffh
	movwf	fsr0
	movlw	0
	btfsc	status,0
	movlw	1
	movwf	indf
	line	258
	
l2519:	
;project.c: 258: send_sms(msg);
	movlw	(send_sms_with_time@msg&0ffh)
	movwf	(?_send_sms)
	movlw	(0x1/2)
	movwf	(?_send_sms+1)
	fcall	_send_sms
	line	259
	
l668:	
	return
	opt stack 0
GLOBAL	__end_of_send_sms_with_time
	__end_of_send_sms_with_time:
;; =============== function _send_sms_with_time ends ============

	signat	_send_sms_with_time,4216
	global	_send_sms
psect	text335,local,class=CODE,delta=2
global __ptext335
__ptext335:

;; *************** function _send_sms *****************
;; Defined at:
;;		line 223 in file "C:\keerthu\Pic16f877a_Revision\productionline\project.c"
;; Parameters:    Size  Location     Type
;;  message         2    3[COMMON] PTR const unsigned char 
;;		 -> send_sms_with_time@msg(40), STR_8(15), 
;; Auto vars:     Size  Location     Type
;;		None
;; Return value:  Size  Location     Type
;;		None               void
;; Registers used:
;;		wreg, fsr0l, fsr0h, status,2, status,0, btemp+1, pclath, cstack
;; Tracked objects:
;;		On entry : 0/0
;;		On exit  : 0/0
;;		Unchanged: 0/0
;; Data sizes:     COMMON   BANK0   BANK1   BANK3   BANK2
;;      Params:         2       0       0       0       0
;;      Locals:         0       0       0       0       0
;;      Temps:          3       0       0       0       0
;;      Totals:         5       0       0       0       0
;;Total ram usage:        5 bytes
;; Hardware stack levels used:    1
;; Hardware stack levels required when called:    2
;; This function calls:
;;		_send_string_uart
;;		_send_char_uart
;; This function is called by:
;;		_main
;;		_send_sms_with_time
;; This function uses a non-reentrant model
;;
psect	text335
	file	"C:\keerthu\Pic16f877a_Revision\productionline\project.c"
	line	223
	global	__size_of_send_sms
	__size_of_send_sms	equ	__end_of_send_sms-_send_sms
	
_send_sms:	
	opt	stack 4
; Regs used in _send_sms: [wreg-fsr0h+status,2+status,0+btemp+1+pclath+cstack]
	line	224
	
l2469:	
;project.c: 224: _delay((unsigned long)((100)*(8000000/4000.0)));
	opt asmopt_off
movlw  2
movwf	((??_send_sms+0)+0+2),f
movlw	3
movwf	((??_send_sms+0)+0+1),f
	movlw	186
movwf	((??_send_sms+0)+0),f
u2987:
	decfsz	((??_send_sms+0)+0),f
	goto	u2987
	decfsz	((??_send_sms+0)+0+1),f
	goto	u2987
	decfsz	((??_send_sms+0)+0+2),f
	goto	u2987
opt asmopt_on

	line	225
	
l2471:	
;project.c: 225: send_string_uart("AT\r\n");
	movlw	low((STR_12-__stringbase))
	movwf	(?_send_string_uart)
	movlw	80h
	movwf	(?_send_string_uart+1)
	fcall	_send_string_uart
	line	226
	
l2473:	
;project.c: 226: _delay((unsigned long)((100)*(8000000/4000.0)));
	opt asmopt_off
movlw  2
movwf	((??_send_sms+0)+0+2),f
movlw	3
movwf	((??_send_sms+0)+0+1),f
	movlw	186
movwf	((??_send_sms+0)+0),f
u2997:
	decfsz	((??_send_sms+0)+0),f
	goto	u2997
	decfsz	((??_send_sms+0)+0+1),f
	goto	u2997
	decfsz	((??_send_sms+0)+0+2),f
	goto	u2997
opt asmopt_on

	line	227
;project.c: 227: send_string_uart("AT+CMGF=1\r\n");
	movlw	low((STR_13-__stringbase))
	movwf	(?_send_string_uart)
	movlw	80h
	movwf	(?_send_string_uart+1)
	fcall	_send_string_uart
	line	228
	
l2475:	
;project.c: 228: _delay((unsigned long)((100)*(8000000/4000.0)));
	opt asmopt_off
movlw  2
movwf	((??_send_sms+0)+0+2),f
movlw	3
movwf	((??_send_sms+0)+0+1),f
	movlw	186
movwf	((??_send_sms+0)+0),f
u3007:
	decfsz	((??_send_sms+0)+0),f
	goto	u3007
	decfsz	((??_send_sms+0)+0+1),f
	goto	u3007
	decfsz	((??_send_sms+0)+0+2),f
	goto	u3007
opt asmopt_on

	line	229
	
l2477:	
;project.c: 229: send_string_uart("AT+CMGS=\"+919363200465\"\r\n");
	movlw	low((STR_14-__stringbase))
	movwf	(?_send_string_uart)
	movlw	80h
	movwf	(?_send_string_uart+1)
	fcall	_send_string_uart
	line	230
;project.c: 230: _delay((unsigned long)((100)*(8000000/4000.0)));
	opt asmopt_off
movlw  2
movwf	((??_send_sms+0)+0+2),f
movlw	3
movwf	((??_send_sms+0)+0+1),f
	movlw	186
movwf	((??_send_sms+0)+0),f
u3017:
	decfsz	((??_send_sms+0)+0),f
	goto	u3017
	decfsz	((??_send_sms+0)+0+1),f
	goto	u3017
	decfsz	((??_send_sms+0)+0+2),f
	goto	u3017
opt asmopt_on

	line	231
	
l2479:	
;project.c: 231: send_string_uart(message);
	movf	(send_sms@message+1),w
	clrf	(?_send_string_uart+1)
	addwf	(?_send_string_uart+1)
	movf	(send_sms@message),w
	clrf	(?_send_string_uart)
	addwf	(?_send_string_uart)

	fcall	_send_string_uart
	line	232
	
l2481:	
;project.c: 232: send_char_uart(0x1A);
	movlw	(01Ah)
	fcall	_send_char_uart
	line	233
	
l2483:	
;project.c: 233: _delay((unsigned long)((500)*(8000000/4000.0)));
	opt asmopt_off
movlw  6
movwf	((??_send_sms+0)+0+2),f
movlw	14
movwf	((??_send_sms+0)+0+1),f
	movlw	176
movwf	((??_send_sms+0)+0),f
u3027:
	decfsz	((??_send_sms+0)+0),f
	goto	u3027
	decfsz	((??_send_sms+0)+0+1),f
	goto	u3027
	decfsz	((??_send_sms+0)+0+2),f
	goto	u3027
opt asmopt_on

	line	234
	
l652:	
	return
	opt stack 0
GLOBAL	__end_of_send_sms
	__end_of_send_sms:
;; =============== function _send_sms ends ============

	signat	_send_sms,4216
	global	_send_string_uart
psect	text336,local,class=CODE,delta=2
global __ptext336
__ptext336:

;; *************** function _send_string_uart *****************
;; Defined at:
;;		line 218 in file "C:\keerthu\Pic16f877a_Revision\productionline\project.c"
;; Parameters:    Size  Location     Type
;;  s               2    1[COMMON] PTR const unsigned char 
;;		 -> send_sms_with_time@msg(40), STR_14(26), STR_13(12), STR_12(5), 
;;		 -> STR_8(15), 
;; Auto vars:     Size  Location     Type
;;		None
;; Return value:  Size  Location     Type
;;		None               void
;; Registers used:
;;		wreg, fsr0l, fsr0h, status,2, status,0, btemp+1, pclath, cstack
;; Tracked objects:
;;		On entry : 0/0
;;		On exit  : 0/0
;;		Unchanged: 0/0
;; Data sizes:     COMMON   BANK0   BANK1   BANK3   BANK2
;;      Params:         2       0       0       0       0
;;      Locals:         0       0       0       0       0
;;      Temps:          0       0       0       0       0
;;      Totals:         2       0       0       0       0
;;Total ram usage:        2 bytes
;; Hardware stack levels used:    1
;; Hardware stack levels required when called:    1
;; This function calls:
;;		_send_char_uart
;; This function is called by:
;;		_send_sms
;; This function uses a non-reentrant model
;;
psect	text336
	file	"C:\keerthu\Pic16f877a_Revision\productionline\project.c"
	line	218
	global	__size_of_send_string_uart
	__size_of_send_string_uart	equ	__end_of_send_string_uart-_send_string_uart
	
_send_string_uart:	
	opt	stack 4
; Regs used in _send_string_uart: [wreg-fsr0h+status,2+status,0+btemp+1+pclath+cstack]
	line	219
	
l2461:	
;project.c: 219: while(*s) send_char_uart(*s++);
	goto	l2467
	
l647:	
	
l2463:	
	movf	(send_string_uart@s+1),w
	bcf	status, 5	;RP0=0, select bank0
	bcf	status, 6	;RP1=0, select bank0
	movwf	btemp+1
	movf	(send_string_uart@s),w
	movwf	fsr0
	fcall	stringtab
	fcall	_send_char_uart
	
l2465:	
	movlw	low(01h)
	addwf	(send_string_uart@s),f
	skipnc
	incf	(send_string_uart@s+1),f
	movlw	high(01h)
	addwf	(send_string_uart@s+1),f
	goto	l2467
	
l646:	
	
l2467:	
	movf	(send_string_uart@s+1),w
	bcf	status, 5	;RP0=0, select bank0
	bcf	status, 6	;RP1=0, select bank0
	movwf	btemp+1
	movf	(send_string_uart@s),w
	movwf	fsr0
	fcall	stringtab
	iorlw	0
	skipz
	goto	u2831
	goto	u2830
u2831:
	goto	l2463
u2830:
	goto	l649
	
l648:	
	line	220
	
l649:	
	return
	opt stack 0
GLOBAL	__end_of_send_string_uart
	__end_of_send_string_uart:
;; =============== function _send_string_uart ends ============

	signat	_send_string_uart,4216
	global	_int_to_str
psect	text337,local,class=CODE,delta=2
global __ptext337
__ptext337:

;; *************** function _int_to_str *****************
;; Defined at:
;;		line 173 in file "C:\keerthu\Pic16f877a_Revision\productionline\project.c"
;; Parameters:    Size  Location     Type
;;  n               2    9[COMMON] unsigned int 
;;  buf             1   11[COMMON] PTR unsigned char 
;;		 -> send_sms_with_time@buf(6), 
;; Auto vars:     Size  Location     Type
;;  t               1    3[BANK0 ] unsigned char 
;;  i               2    6[BANK0 ] int 
;;  p               2    4[BANK0 ] int 
;; Return value:  Size  Location     Type
;;		None               void
;; Registers used:
;;		wreg, fsr0l, fsr0h, status,2, status,0, pclath, cstack
;; Tracked objects:
;;		On entry : 0/0
;;		On exit  : 0/0
;;		Unchanged: 0/0
;; Data sizes:     COMMON   BANK0   BANK1   BANK3   BANK2
;;      Params:         3       0       0       0       0
;;      Locals:         0       5       0       0       0
;;      Temps:          0       3       0       0       0
;;      Totals:         3       8       0       0       0
;;Total ram usage:       11 bytes
;; Hardware stack levels used:    1
;; Hardware stack levels required when called:    1
;; This function calls:
;;		___lwmod
;;		___lwdiv
;;		___awdiv
;; This function is called by:
;;		_send_sms_with_time
;; This function uses a non-reentrant model
;;
psect	text337
	file	"C:\keerthu\Pic16f877a_Revision\productionline\project.c"
	line	173
	global	__size_of_int_to_str
	__size_of_int_to_str	equ	__end_of_int_to_str-_int_to_str
	
_int_to_str:	
	opt	stack 5
; Regs used in _int_to_str: [wreg-fsr0h+status,2+status,0+pclath+cstack]
	line	174
	
l2433:	
;project.c: 174: int p = 0;
	movlw	low(0)
	bcf	status, 5	;RP0=0, select bank0
	bcf	status, 6	;RP1=0, select bank0
	movwf	(int_to_str@p)
	movlw	high(0)
	movwf	((int_to_str@p))+1
	line	175
	
l2435:	
;project.c: 175: if(n == 0)
	movf	((int_to_str@n+1)),w
	iorwf	((int_to_str@n)),w
	skipz
	goto	u2801
	goto	u2800
u2801:
	goto	l2449
u2800:
	line	177
	
l2437:	
;project.c: 176: {
;project.c: 177: buf[0] = '0';
	movlw	(030h)
	movwf	(??_int_to_str+0)+0
	movf	(int_to_str@buf),w
	movwf	fsr0
	movf	(??_int_to_str+0)+0,w
	bcf	status, 7	;select IRP bank0
	movwf	indf
	line	178
	
l2439:	
;project.c: 178: buf[1] = '\0';
	clrc
	movf	(int_to_str@buf),w
	addlw	01h
	movwf	fsr0
	movlw	0
	btfsc	status,0
	movlw	1
	movwf	indf
	goto	l628
	line	179
	
l2441:	
;project.c: 179: return;
	goto	l628
	line	180
	
l627:	
	line	182
;project.c: 180: }
;project.c: 182: while(n > 0)
	goto	l2449
	
l630:	
	line	184
	
l2443:	
;project.c: 183: {
;project.c: 184: buf[p++] = (n % 10) + '0';
	movlw	low(0Ah)
	movwf	(?___lwmod)
	movlw	high(0Ah)
	movwf	((?___lwmod))+1
	movf	(int_to_str@n+1),w
	clrf	1+(?___lwmod)+02h
	addwf	1+(?___lwmod)+02h
	movf	(int_to_str@n),w
	clrf	0+(?___lwmod)+02h
	addwf	0+(?___lwmod)+02h

	fcall	___lwmod
	movf	(0+(?___lwmod)),w
	addlw	030h
	bcf	status, 5	;RP0=0, select bank0
	bcf	status, 6	;RP1=0, select bank0
	movwf	(??_int_to_str+0)+0
	movf	(int_to_str@p),w
	addwf	(int_to_str@buf),w
	movwf	(??_int_to_str+1)+0
	movf	0+(??_int_to_str+1)+0,w
	movwf	fsr0
	movf	(??_int_to_str+0)+0,w
	bcf	status, 7	;select IRP bank0
	movwf	indf
	
l2445:	
	movlw	low(01h)
	addwf	(int_to_str@p),f
	skipnc
	incf	(int_to_str@p+1),f
	movlw	high(01h)
	addwf	(int_to_str@p+1),f
	line	185
	
l2447:	
;project.c: 185: n /= 10;
	movlw	low(0Ah)
	movwf	(?___lwdiv)
	movlw	high(0Ah)
	movwf	((?___lwdiv))+1
	movf	(int_to_str@n+1),w
	clrf	1+(?___lwdiv)+02h
	addwf	1+(?___lwdiv)+02h
	movf	(int_to_str@n),w
	clrf	0+(?___lwdiv)+02h
	addwf	0+(?___lwdiv)+02h

	fcall	___lwdiv
	movf	(1+(?___lwdiv)),w
	clrf	(int_to_str@n+1)
	addwf	(int_to_str@n+1)
	movf	(0+(?___lwdiv)),w
	clrf	(int_to_str@n)
	addwf	(int_to_str@n)

	goto	l2449
	line	186
	
l629:	
	line	182
	
l2449:	
	movf	((int_to_str@n+1)),w
	iorwf	((int_to_str@n)),w
	skipz
	goto	u2811
	goto	u2810
u2811:
	goto	l2443
u2810:
	goto	l2451
	
l631:	
	line	188
	
l2451:	
;project.c: 186: }
;project.c: 188: for(int i = 0; i < p/2; i++)
	movlw	low(0)
	bcf	status, 5	;RP0=0, select bank0
	bcf	status, 6	;RP1=0, select bank0
	movwf	(int_to_str@i)
	movlw	high(0)
	movwf	((int_to_str@i))+1
	goto	l2457
	line	189
	
l633:	
	line	190
	
l2453:	
;project.c: 189: {
;project.c: 190: char t = buf[i];
	bcf	status, 5	;RP0=0, select bank0
	bcf	status, 6	;RP1=0, select bank0
	movf	(int_to_str@i),w
	addwf	(int_to_str@buf),w
	movwf	(??_int_to_str+0)+0
	movf	0+(??_int_to_str+0)+0,w
	movwf	fsr0
	bcf	status, 7	;select IRP bank0
	movf	indf,w
	movwf	(??_int_to_str+1)+0
	movf	(??_int_to_str+1)+0,w
	movwf	(int_to_str@t)
	line	191
;project.c: 191: buf[i] = buf[p-i-1];
	movf	(int_to_str@i),w
	addlw	01h
	xorlw	0ffh
	addlw	1
	addwf	(int_to_str@p),w
	addwf	(int_to_str@buf),w
	movwf	(??_int_to_str+0)+0
	movf	0+(??_int_to_str+0)+0,w
	movwf	fsr0
	movf	indf,w
	movwf	(??_int_to_str+1)+0
	movf	(int_to_str@i),w
	addwf	(int_to_str@buf),w
	movwf	(??_int_to_str+2)+0
	movf	0+(??_int_to_str+2)+0,w
	movwf	fsr0
	movf	(??_int_to_str+1)+0,w
	movwf	indf
	line	192
;project.c: 192: buf[p-i-1] = t;
	movf	(int_to_str@t),w
	movwf	(??_int_to_str+0)+0
	movf	(int_to_str@i),w
	addlw	01h
	xorlw	0ffh
	addlw	1
	addwf	(int_to_str@p),w
	addwf	(int_to_str@buf),w
	movwf	(??_int_to_str+1)+0
	movf	0+(??_int_to_str+1)+0,w
	movwf	fsr0
	movf	(??_int_to_str+0)+0,w
	movwf	indf
	line	188
	
l2455:	
	movlw	low(01h)
	addwf	(int_to_str@i),f
	skipnc
	incf	(int_to_str@i+1),f
	movlw	high(01h)
	addwf	(int_to_str@i+1),f
	goto	l2457
	
l632:	
	
l2457:	
	movlw	low(02h)
	movwf	(?___awdiv)
	movlw	high(02h)
	movwf	((?___awdiv))+1
	movf	(int_to_str@p+1),w
	clrf	1+(?___awdiv)+02h
	addwf	1+(?___awdiv)+02h
	movf	(int_to_str@p),w
	clrf	0+(?___awdiv)+02h
	addwf	0+(?___awdiv)+02h

	fcall	___awdiv
	bcf	status, 5	;RP0=0, select bank0
	bcf	status, 6	;RP1=0, select bank0
	movf	(int_to_str@i+1),w
	xorlw	80h
	movwf	(??_int_to_str+0)+0
	movf	(1+(?___awdiv)),w
	xorlw	80h
	subwf	(??_int_to_str+0)+0,w
	skipz
	goto	u2825
	movf	(0+(?___awdiv)),w
	subwf	(int_to_str@i),w
u2825:

	skipc
	goto	u2821
	goto	u2820
u2821:
	goto	l2453
u2820:
	goto	l2459
	
l634:	
	line	195
	
l2459:	
;project.c: 193: }
;project.c: 195: buf[p] = '\0';
	clrc
	bcf	status, 5	;RP0=0, select bank0
	bcf	status, 6	;RP1=0, select bank0
	movf	(int_to_str@p),w
	addwf	(int_to_str@buf),w
	movwf	(??_int_to_str+0)+0
	movf	0+(??_int_to_str+0)+0,w
	movwf	fsr0
	movlw	0
	btfsc	status,0
	movlw	1
	bcf	status, 7	;select IRP bank0
	movwf	indf
	line	196
	
l628:	
	return
	opt stack 0
GLOBAL	__end_of_int_to_str
	__end_of_int_to_str:
;; =============== function _int_to_str ends ============

	signat	_int_to_str,8312
	global	_show_number
psect	text338,local,class=CODE,delta=2
global __ptext338
__ptext338:

;; *************** function _show_number *****************
;; Defined at:
;;		line 152 in file "C:\keerthu\Pic16f877a_Revision\productionline\project.c"
;; Parameters:    Size  Location     Type
;;  n               2    8[COMMON] unsigned int 
;; Auto vars:     Size  Location     Type
;;  buf             6    0[BANK0 ] unsigned char [6]
;;  p               2    6[BANK0 ] int 
;; Return value:  Size  Location     Type
;;		None               void
;; Registers used:
;;		wreg, fsr0l, fsr0h, status,2, status,0, btemp+1, pclath, cstack
;; Tracked objects:
;;		On entry : 0/0
;;		On exit  : 0/0
;;		Unchanged: 0/0
;; Data sizes:     COMMON   BANK0   BANK1   BANK3   BANK2
;;      Params:         2       0       0       0       0
;;      Locals:         0       8       0       0       0
;;      Temps:          1       0       0       0       0
;;      Totals:         3       8       0       0       0
;;Total ram usage:       11 bytes
;; Hardware stack levels used:    1
;; Hardware stack levels required when called:    1
;; This function calls:
;;		_dat
;;		___lwmod
;;		___lwdiv
;; This function is called by:
;;		_main
;; This function uses a non-reentrant model
;;
psect	text338
	file	"C:\keerthu\Pic16f877a_Revision\productionline\project.c"
	line	152
	global	__size_of_show_number
	__size_of_show_number	equ	__end_of_show_number-_show_number
	
_show_number:	
	opt	stack 6
; Regs used in _show_number: [wreg-fsr0h+status,2+status,0+btemp+1+pclath+cstack]
	line	154
	
l2413:	
;project.c: 153: unsigned char buf[6];
;project.c: 154: int p = 0;
	movlw	low(0)
	bcf	status, 5	;RP0=0, select bank0
	bcf	status, 6	;RP1=0, select bank0
	movwf	(show_number@p)
	movlw	high(0)
	movwf	((show_number@p))+1
	line	156
	
l2415:	
;project.c: 156: if(n == 0)
	movf	((show_number@n+1)),w
	iorwf	((show_number@n)),w
	skipz
	goto	u2771
	goto	u2770
u2771:
	goto	l2427
u2770:
	line	158
	
l2417:	
;project.c: 157: {
;project.c: 158: dat('0');
	movlw	(030h)
	fcall	_dat
	goto	l618
	line	159
	
l2419:	
;project.c: 159: return;
	goto	l618
	line	160
	
l617:	
	line	162
;project.c: 160: }
;project.c: 162: while(n > 0)
	goto	l2427
	
l620:	
	line	164
	
l2421:	
;project.c: 163: {
;project.c: 164: buf[p++] = (n % 10) + '0';
	movlw	low(0Ah)
	movwf	(?___lwmod)
	movlw	high(0Ah)
	movwf	((?___lwmod))+1
	movf	(show_number@n+1),w
	clrf	1+(?___lwmod)+02h
	addwf	1+(?___lwmod)+02h
	movf	(show_number@n),w
	clrf	0+(?___lwmod)+02h
	addwf	0+(?___lwmod)+02h

	fcall	___lwmod
	movf	(0+(?___lwmod)),w
	addlw	030h
	movwf	(??_show_number+0)+0
	bcf	status, 5	;RP0=0, select bank0
	bcf	status, 6	;RP1=0, select bank0
	movf	(show_number@p),w
	addlw	show_number@buf&0ffh
	movwf	fsr0
	movf	(??_show_number+0)+0,w
	bcf	status, 7	;select IRP bank0
	movwf	indf
	
l2423:	
	movlw	low(01h)
	addwf	(show_number@p),f
	skipnc
	incf	(show_number@p+1),f
	movlw	high(01h)
	addwf	(show_number@p+1),f
	line	165
	
l2425:	
;project.c: 165: n /= 10;
	movlw	low(0Ah)
	movwf	(?___lwdiv)
	movlw	high(0Ah)
	movwf	((?___lwdiv))+1
	movf	(show_number@n+1),w
	clrf	1+(?___lwdiv)+02h
	addwf	1+(?___lwdiv)+02h
	movf	(show_number@n),w
	clrf	0+(?___lwdiv)+02h
	addwf	0+(?___lwdiv)+02h

	fcall	___lwdiv
	movf	(1+(?___lwdiv)),w
	clrf	(show_number@n+1)
	addwf	(show_number@n+1)
	movf	(0+(?___lwdiv)),w
	clrf	(show_number@n)
	addwf	(show_number@n)

	goto	l2427
	line	166
	
l619:	
	line	162
	
l2427:	
	movf	((show_number@n+1)),w
	iorwf	((show_number@n)),w
	skipz
	goto	u2781
	goto	u2780
u2781:
	goto	l2421
u2780:
	goto	l2431
	
l621:	
	line	168
;project.c: 166: }
;project.c: 168: while(p--)
	goto	l2431
	
l623:	
	line	169
	
l2429:	
;project.c: 169: dat(buf[p]);
	bcf	status, 5	;RP0=0, select bank0
	bcf	status, 6	;RP1=0, select bank0
	movf	(show_number@p),w
	addlw	show_number@buf&0ffh
	movwf	fsr0
	bcf	status, 7	;select IRP bank0
	movf	indf,w
	fcall	_dat
	goto	l2431
	
l622:	
	line	168
	
l2431:	
	movlw	low(-1)
	bcf	status, 5	;RP0=0, select bank0
	bcf	status, 6	;RP1=0, select bank0
	addwf	(show_number@p),f
	skipnc
	incf	(show_number@p+1),f
	movlw	high(-1)
	addwf	(show_number@p+1),f
	movlw	high(-1)
	xorwf	((show_number@p+1)),w
	skipz
	goto	u2795
	movlw	low(-1)
	xorwf	((show_number@p)),w
u2795:

	skipz
	goto	u2791
	goto	u2790
u2791:
	goto	l2429
u2790:
	goto	l618
	
l624:	
	line	170
	
l618:	
	return
	opt stack 0
GLOBAL	__end_of_show_number
	__end_of_show_number:
;; =============== function _show_number ends ============

	signat	_show_number,4216
	global	_show
psect	text339,local,class=CODE,delta=2
global __ptext339
__ptext339:

;; *************** function _show *****************
;; Defined at:
;;		line 147 in file "C:\keerthu\Pic16f877a_Revision\productionline\project.c"
;; Parameters:    Size  Location     Type
;;  s               1    wreg     PTR const unsigned char 
;;		 -> STR_11(7), STR_10(7), STR_9(16), STR_7(7), 
;;		 -> STR_6(7), STR_5(16), STR_4(16), STR_3(13), 
;;		 -> STR_2(16), STR_1(16), 
;; Auto vars:     Size  Location     Type
;;  s               1    4[COMMON] PTR const unsigned char 
;;		 -> STR_11(7), STR_10(7), STR_9(16), STR_7(7), 
;;		 -> STR_6(7), STR_5(16), STR_4(16), STR_3(13), 
;;		 -> STR_2(16), STR_1(16), 
;; Return value:  Size  Location     Type
;;		None               void
;; Registers used:
;;		wreg, fsr0l, fsr0h, status,2, status,0, btemp+1, pclath, cstack
;; Tracked objects:
;;		On entry : 0/0
;;		On exit  : 0/0
;;		Unchanged: 0/0
;; Data sizes:     COMMON   BANK0   BANK1   BANK3   BANK2
;;      Params:         0       0       0       0       0
;;      Locals:         1       0       0       0       0
;;      Temps:          1       0       0       0       0
;;      Totals:         2       0       0       0       0
;;Total ram usage:        2 bytes
;; Hardware stack levels used:    1
;; Hardware stack levels required when called:    1
;; This function calls:
;;		_dat
;; This function is called by:
;;		_main
;; This function uses a non-reentrant model
;;
psect	text339
	file	"C:\keerthu\Pic16f877a_Revision\productionline\project.c"
	line	147
	global	__size_of_show
	__size_of_show	equ	__end_of_show-_show
	
_show:	
	opt	stack 6
; Regs used in _show: [wreg-fsr0h+status,2+status,0+btemp+1+pclath+cstack]
;show@s stored from wreg
	movwf	(show@s)
	line	148
	
l2405:	
;project.c: 148: while(*s) dat(*s++);
	goto	l2411
	
l612:	
	
l2407:	
	movf	(show@s),w
	movwf	fsr0
	fcall	stringdir
	fcall	_dat
	
l2409:	
	movlw	(01h)
	movwf	(??_show+0)+0
	movf	(??_show+0)+0,w
	addwf	(show@s),f
	goto	l2411
	
l611:	
	
l2411:	
	movf	(show@s),w
	movwf	fsr0
	fcall	stringdir
	iorlw	0
	skipz
	goto	u2761
	goto	u2760
u2761:
	goto	l2407
u2760:
	goto	l614
	
l613:	
	line	149
	
l614:	
	return
	opt stack 0
GLOBAL	__end_of_show
	__end_of_show:
;; =============== function _show ends ============

	signat	_show,4216
	global	_lcd_init
psect	text340,local,class=CODE,delta=2
global __ptext340
__ptext340:

;; *************** function _lcd_init *****************
;; Defined at:
;;		line 117 in file "C:\keerthu\Pic16f877a_Revision\productionline\project.c"
;; Parameters:    Size  Location     Type
;;		None
;; Auto vars:     Size  Location     Type
;;		None
;; Return value:  Size  Location     Type
;;		None               void
;; Registers used:
;;		wreg, status,2, status,0, btemp+1, pclath, cstack
;; Tracked objects:
;;		On entry : 0/0
;;		On exit  : 0/0
;;		Unchanged: 0/0
;; Data sizes:     COMMON   BANK0   BANK1   BANK3   BANK2
;;      Params:         0       0       0       0       0
;;      Locals:         0       0       0       0       0
;;      Temps:          0       0       0       0       0
;;      Totals:         0       0       0       0       0
;;Total ram usage:        0 bytes
;; Hardware stack levels used:    1
;; Hardware stack levels required when called:    1
;; This function calls:
;;		_cmd
;; This function is called by:
;;		_main
;; This function uses a non-reentrant model
;;
psect	text340
	file	"C:\keerthu\Pic16f877a_Revision\productionline\project.c"
	line	117
	global	__size_of_lcd_init
	__size_of_lcd_init	equ	__end_of_lcd_init-_lcd_init
	
_lcd_init:	
	opt	stack 6
; Regs used in _lcd_init: [wreg+status,2+status,0+btemp+1+pclath+cstack]
	line	118
	
l2391:	
;project.c: 118: TRISD = 0x00;
	bsf	status, 5	;RP0=1, select bank1
	bcf	status, 6	;RP1=0, select bank1
	clrf	(136)^080h	;volatile
	line	120
	
l2393:	
;project.c: 120: cmd(0x33);
	movlw	(033h)
	fcall	_cmd
	line	121
	
l2395:	
;project.c: 121: cmd(0x32);
	movlw	(032h)
	fcall	_cmd
	line	122
	
l2397:	
;project.c: 122: cmd(0x28);
	movlw	(028h)
	fcall	_cmd
	line	123
	
l2399:	
;project.c: 123: cmd(0x0C);
	movlw	(0Ch)
	fcall	_cmd
	line	124
	
l2401:	
;project.c: 124: cmd(0x06);
	movlw	(06h)
	fcall	_cmd
	line	125
	
l2403:	
;project.c: 125: cmd(0x80);
	movlw	(080h)
	fcall	_cmd
	line	126
	
l594:	
	return
	opt stack 0
GLOBAL	__end_of_lcd_init
	__end_of_lcd_init:
;; =============== function _lcd_init ends ============

	signat	_lcd_init,88
	global	___awdiv
psect	text341,local,class=CODE,delta=2
global __ptext341
__ptext341:

;; *************** function ___awdiv *****************
;; Defined at:
;;		line 5 in file "C:\Program Files (x86)\HI-TECH Software\PICC\9.80\sources\awdiv.c"
;; Parameters:    Size  Location     Type
;;  divisor         2    0[COMMON] int 
;;  dividend        2    2[COMMON] int 
;; Auto vars:     Size  Location     Type
;;  quotient        2    7[COMMON] int 
;;  sign            1    6[COMMON] unsigned char 
;;  counter         1    5[COMMON] unsigned char 
;; Return value:  Size  Location     Type
;;                  2    0[COMMON] int 
;; Registers used:
;;		wreg, status,2, status,0
;; Tracked objects:
;;		On entry : 0/0
;;		On exit  : 0/0
;;		Unchanged: 0/0
;; Data sizes:     COMMON   BANK0   BANK1   BANK3   BANK2
;;      Params:         4       0       0       0       0
;;      Locals:         4       0       0       0       0
;;      Temps:          1       0       0       0       0
;;      Totals:         9       0       0       0       0
;;Total ram usage:        9 bytes
;; Hardware stack levels used:    1
;; This function calls:
;;		Nothing
;; This function is called by:
;;		_int_to_str
;; This function uses a non-reentrant model
;;
psect	text341
	file	"C:\Program Files (x86)\HI-TECH Software\PICC\9.80\sources\awdiv.c"
	line	5
	global	__size_of___awdiv
	__size_of___awdiv	equ	__end_of___awdiv-___awdiv
	
___awdiv:	
	opt	stack 5
; Regs used in ___awdiv: [wreg+status,2+status,0]
	line	9
	
l2353:	
	clrc
	movlw	0
	btfsc	status,0
	movlw	1
	movwf	(___awdiv@sign)
	line	10
	
l2355:	
	btfss	(___awdiv@divisor+1),7
	goto	u2661
	goto	u2660
u2661:
	goto	l2359
u2660:
	line	11
	
l2357:	
	comf	(___awdiv@divisor),f
	comf	(___awdiv@divisor+1),f
	incf	(___awdiv@divisor),f
	skipnz
	incf	(___awdiv@divisor+1),f
	line	12
	clrf	(___awdiv@sign)
	bsf	status,0
	rlf	(___awdiv@sign),f
	goto	l2359
	line	13
	
l817:	
	line	14
	
l2359:	
	btfss	(___awdiv@dividend+1),7
	goto	u2671
	goto	u2670
u2671:
	goto	l818
u2670:
	line	15
	
l2361:	
	comf	(___awdiv@dividend),f
	comf	(___awdiv@dividend+1),f
	incf	(___awdiv@dividend),f
	skipnz
	incf	(___awdiv@dividend+1),f
	line	16
	
l2363:	
	movlw	(01h)
	movwf	(??___awdiv+0)+0
	movf	(??___awdiv+0)+0,w
	xorwf	(___awdiv@sign),f
	line	17
	
l818:	
	line	18
	movlw	low(0)
	movwf	(___awdiv@quotient)
	movlw	high(0)
	movwf	((___awdiv@quotient))+1
	line	19
	movf	(___awdiv@divisor+1),w
	iorwf	(___awdiv@divisor),w
	skipnz
	goto	u2681
	goto	u2680
u2681:
	goto	l2383
u2680:
	line	20
	
l2365:	
	clrf	(___awdiv@counter)
	bsf	status,0
	rlf	(___awdiv@counter),f
	line	21
	goto	l2371
	
l821:	
	line	22
	
l2367:	
	movlw	01h
	
u2695:
	clrc
	rlf	(___awdiv@divisor),f
	rlf	(___awdiv@divisor+1),f
	addlw	-1
	skipz
	goto	u2695
	line	23
	
l2369:	
	movlw	(01h)
	movwf	(??___awdiv+0)+0
	movf	(??___awdiv+0)+0,w
	addwf	(___awdiv@counter),f
	goto	l2371
	line	24
	
l820:	
	line	21
	
l2371:	
	btfss	(___awdiv@divisor+1),(15)&7
	goto	u2701
	goto	u2700
u2701:
	goto	l2367
u2700:
	goto	l2373
	
l822:	
	goto	l2373
	line	25
	
l823:	
	line	26
	
l2373:	
	movlw	01h
	
u2715:
	clrc
	rlf	(___awdiv@quotient),f
	rlf	(___awdiv@quotient+1),f
	addlw	-1
	skipz
	goto	u2715
	line	27
	movf	(___awdiv@divisor+1),w
	subwf	(___awdiv@dividend+1),w
	skipz
	goto	u2725
	movf	(___awdiv@divisor),w
	subwf	(___awdiv@dividend),w
u2725:
	skipc
	goto	u2721
	goto	u2720
u2721:
	goto	l2379
u2720:
	line	28
	
l2375:	
	movf	(___awdiv@divisor),w
	subwf	(___awdiv@dividend),f
	movf	(___awdiv@divisor+1),w
	skipc
	decf	(___awdiv@dividend+1),f
	subwf	(___awdiv@dividend+1),f
	line	29
	
l2377:	
	bsf	(___awdiv@quotient)+(0/8),(0)&7
	goto	l2379
	line	30
	
l824:	
	line	31
	
l2379:	
	movlw	01h
	
u2735:
	clrc
	rrf	(___awdiv@divisor+1),f
	rrf	(___awdiv@divisor),f
	addlw	-1
	skipz
	goto	u2735
	line	32
	
l2381:	
	movlw	low(01h)
	subwf	(___awdiv@counter),f
	btfss	status,2
	goto	u2741
	goto	u2740
u2741:
	goto	l2373
u2740:
	goto	l2383
	
l825:	
	goto	l2383
	line	33
	
l819:	
	line	34
	
l2383:	
	movf	(___awdiv@sign),w
	skipz
	goto	u2750
	goto	l2387
u2750:
	line	35
	
l2385:	
	comf	(___awdiv@quotient),f
	comf	(___awdiv@quotient+1),f
	incf	(___awdiv@quotient),f
	skipnz
	incf	(___awdiv@quotient+1),f
	goto	l2387
	
l826:	
	line	36
	
l2387:	
	movf	(___awdiv@quotient+1),w
	clrf	(?___awdiv+1)
	addwf	(?___awdiv+1)
	movf	(___awdiv@quotient),w
	clrf	(?___awdiv)
	addwf	(?___awdiv)

	goto	l827
	
l2389:	
	line	37
	
l827:	
	return
	opt stack 0
GLOBAL	__end_of___awdiv
	__end_of___awdiv:
;; =============== function ___awdiv ends ============

	signat	___awdiv,8314
	global	___lwmod
psect	text342,local,class=CODE,delta=2
global __ptext342
__ptext342:

;; *************** function ___lwmod *****************
;; Defined at:
;;		line 5 in file "C:\Program Files (x86)\HI-TECH Software\PICC\9.80\sources\lwmod.c"
;; Parameters:    Size  Location     Type
;;  divisor         2    0[COMMON] unsigned int 
;;  dividend        2    2[COMMON] unsigned int 
;; Auto vars:     Size  Location     Type
;;  counter         1    5[COMMON] unsigned char 
;; Return value:  Size  Location     Type
;;                  2    0[COMMON] unsigned int 
;; Registers used:
;;		wreg, status,2, status,0
;; Tracked objects:
;;		On entry : 0/0
;;		On exit  : 0/0
;;		Unchanged: 0/0
;; Data sizes:     COMMON   BANK0   BANK1   BANK3   BANK2
;;      Params:         4       0       0       0       0
;;      Locals:         1       0       0       0       0
;;      Temps:          1       0       0       0       0
;;      Totals:         6       0       0       0       0
;;Total ram usage:        6 bytes
;; Hardware stack levels used:    1
;; This function calls:
;;		Nothing
;; This function is called by:
;;		_show_number
;;		_int_to_str
;; This function uses a non-reentrant model
;;
psect	text342
	file	"C:\Program Files (x86)\HI-TECH Software\PICC\9.80\sources\lwmod.c"
	line	5
	global	__size_of___lwmod
	__size_of___lwmod	equ	__end_of___lwmod-___lwmod
	
___lwmod:	
	opt	stack 5
; Regs used in ___lwmod: [wreg+status,2+status,0]
	line	8
	
l2331:	
	movf	(___lwmod@divisor+1),w
	iorwf	(___lwmod@divisor),w
	skipnz
	goto	u2601
	goto	u2600
u2601:
	goto	l2349
u2600:
	line	9
	
l2333:	
	clrf	(___lwmod@counter)
	bsf	status,0
	rlf	(___lwmod@counter),f
	line	10
	goto	l2339
	
l695:	
	line	11
	
l2335:	
	movlw	01h
	
u2615:
	clrc
	rlf	(___lwmod@divisor),f
	rlf	(___lwmod@divisor+1),f
	addlw	-1
	skipz
	goto	u2615
	line	12
	
l2337:	
	movlw	(01h)
	movwf	(??___lwmod+0)+0
	movf	(??___lwmod+0)+0,w
	addwf	(___lwmod@counter),f
	goto	l2339
	line	13
	
l694:	
	line	10
	
l2339:	
	btfss	(___lwmod@divisor+1),(15)&7
	goto	u2621
	goto	u2620
u2621:
	goto	l2335
u2620:
	goto	l2341
	
l696:	
	goto	l2341
	line	14
	
l697:	
	line	15
	
l2341:	
	movf	(___lwmod@divisor+1),w
	subwf	(___lwmod@dividend+1),w
	skipz
	goto	u2635
	movf	(___lwmod@divisor),w
	subwf	(___lwmod@dividend),w
u2635:
	skipc
	goto	u2631
	goto	u2630
u2631:
	goto	l2345
u2630:
	line	16
	
l2343:	
	movf	(___lwmod@divisor),w
	subwf	(___lwmod@dividend),f
	movf	(___lwmod@divisor+1),w
	skipc
	decf	(___lwmod@dividend+1),f
	subwf	(___lwmod@dividend+1),f
	goto	l2345
	
l698:	
	line	17
	
l2345:	
	movlw	01h
	
u2645:
	clrc
	rrf	(___lwmod@divisor+1),f
	rrf	(___lwmod@divisor),f
	addlw	-1
	skipz
	goto	u2645
	line	18
	
l2347:	
	movlw	low(01h)
	subwf	(___lwmod@counter),f
	btfss	status,2
	goto	u2651
	goto	u2650
u2651:
	goto	l2341
u2650:
	goto	l2349
	
l699:	
	goto	l2349
	line	19
	
l693:	
	line	20
	
l2349:	
	movf	(___lwmod@dividend+1),w
	clrf	(?___lwmod+1)
	addwf	(?___lwmod+1)
	movf	(___lwmod@dividend),w
	clrf	(?___lwmod)
	addwf	(?___lwmod)

	goto	l700
	
l2351:	
	line	21
	
l700:	
	return
	opt stack 0
GLOBAL	__end_of___lwmod
	__end_of___lwmod:
;; =============== function ___lwmod ends ============

	signat	___lwmod,8314
	global	___lwdiv
psect	text343,local,class=CODE,delta=2
global __ptext343
__ptext343:

;; *************** function ___lwdiv *****************
;; Defined at:
;;		line 5 in file "C:\Program Files (x86)\HI-TECH Software\PICC\9.80\sources\lwdiv.c"
;; Parameters:    Size  Location     Type
;;  divisor         2    0[COMMON] unsigned int 
;;  dividend        2    2[COMMON] unsigned int 
;; Auto vars:     Size  Location     Type
;;  quotient        2    5[COMMON] unsigned int 
;;  counter         1    7[COMMON] unsigned char 
;; Return value:  Size  Location     Type
;;                  2    0[COMMON] unsigned int 
;; Registers used:
;;		wreg, status,2, status,0
;; Tracked objects:
;;		On entry : 0/0
;;		On exit  : 0/0
;;		Unchanged: 0/0
;; Data sizes:     COMMON   BANK0   BANK1   BANK3   BANK2
;;      Params:         4       0       0       0       0
;;      Locals:         3       0       0       0       0
;;      Temps:          1       0       0       0       0
;;      Totals:         8       0       0       0       0
;;Total ram usage:        8 bytes
;; Hardware stack levels used:    1
;; This function calls:
;;		Nothing
;; This function is called by:
;;		_show_number
;;		_int_to_str
;; This function uses a non-reentrant model
;;
psect	text343
	file	"C:\Program Files (x86)\HI-TECH Software\PICC\9.80\sources\lwdiv.c"
	line	5
	global	__size_of___lwdiv
	__size_of___lwdiv	equ	__end_of___lwdiv-___lwdiv
	
___lwdiv:	
	opt	stack 5
; Regs used in ___lwdiv: [wreg+status,2+status,0]
	line	9
	
l2307:	
	movlw	low(0)
	movwf	(___lwdiv@quotient)
	movlw	high(0)
	movwf	((___lwdiv@quotient))+1
	line	10
	movf	(___lwdiv@divisor+1),w
	iorwf	(___lwdiv@divisor),w
	skipnz
	goto	u2531
	goto	u2530
u2531:
	goto	l2327
u2530:
	line	11
	
l2309:	
	clrf	(___lwdiv@counter)
	bsf	status,0
	rlf	(___lwdiv@counter),f
	line	12
	goto	l2315
	
l685:	
	line	13
	
l2311:	
	movlw	01h
	
u2545:
	clrc
	rlf	(___lwdiv@divisor),f
	rlf	(___lwdiv@divisor+1),f
	addlw	-1
	skipz
	goto	u2545
	line	14
	
l2313:	
	movlw	(01h)
	movwf	(??___lwdiv+0)+0
	movf	(??___lwdiv+0)+0,w
	addwf	(___lwdiv@counter),f
	goto	l2315
	line	15
	
l684:	
	line	12
	
l2315:	
	btfss	(___lwdiv@divisor+1),(15)&7
	goto	u2551
	goto	u2550
u2551:
	goto	l2311
u2550:
	goto	l2317
	
l686:	
	goto	l2317
	line	16
	
l687:	
	line	17
	
l2317:	
	movlw	01h
	
u2565:
	clrc
	rlf	(___lwdiv@quotient),f
	rlf	(___lwdiv@quotient+1),f
	addlw	-1
	skipz
	goto	u2565
	line	18
	movf	(___lwdiv@divisor+1),w
	subwf	(___lwdiv@dividend+1),w
	skipz
	goto	u2575
	movf	(___lwdiv@divisor),w
	subwf	(___lwdiv@dividend),w
u2575:
	skipc
	goto	u2571
	goto	u2570
u2571:
	goto	l2323
u2570:
	line	19
	
l2319:	
	movf	(___lwdiv@divisor),w
	subwf	(___lwdiv@dividend),f
	movf	(___lwdiv@divisor+1),w
	skipc
	decf	(___lwdiv@dividend+1),f
	subwf	(___lwdiv@dividend+1),f
	line	20
	
l2321:	
	bsf	(___lwdiv@quotient)+(0/8),(0)&7
	goto	l2323
	line	21
	
l688:	
	line	22
	
l2323:	
	movlw	01h
	
u2585:
	clrc
	rrf	(___lwdiv@divisor+1),f
	rrf	(___lwdiv@divisor),f
	addlw	-1
	skipz
	goto	u2585
	line	23
	
l2325:	
	movlw	low(01h)
	subwf	(___lwdiv@counter),f
	btfss	status,2
	goto	u2591
	goto	u2590
u2591:
	goto	l2317
u2590:
	goto	l2327
	
l689:	
	goto	l2327
	line	24
	
l683:	
	line	25
	
l2327:	
	movf	(___lwdiv@quotient+1),w
	clrf	(?___lwdiv+1)
	addwf	(?___lwdiv+1)
	movf	(___lwdiv@quotient),w
	clrf	(?___lwdiv)
	addwf	(?___lwdiv)

	goto	l690
	
l2329:	
	line	26
	
l690:	
	return
	opt stack 0
GLOBAL	__end_of___lwdiv
	__end_of___lwdiv:
;; =============== function ___lwdiv ends ============

	signat	___lwdiv,8314
	global	_send_char_uart
psect	text344,local,class=CODE,delta=2
global __ptext344
__ptext344:

;; *************** function _send_char_uart *****************
;; Defined at:
;;		line 212 in file "C:\keerthu\Pic16f877a_Revision\productionline\project.c"
;; Parameters:    Size  Location     Type
;;  c               1    wreg     unsigned char 
;; Auto vars:     Size  Location     Type
;;  c               1    0[COMMON] unsigned char 
;; Return value:  Size  Location     Type
;;		None               void
;; Registers used:
;;		wreg
;; Tracked objects:
;;		On entry : 0/0
;;		On exit  : 0/0
;;		Unchanged: 0/0
;; Data sizes:     COMMON   BANK0   BANK1   BANK3   BANK2
;;      Params:         0       0       0       0       0
;;      Locals:         1       0       0       0       0
;;      Temps:          0       0       0       0       0
;;      Totals:         1       0       0       0       0
;;Total ram usage:        1 bytes
;; Hardware stack levels used:    1
;; This function calls:
;;		Nothing
;; This function is called by:
;;		_send_string_uart
;;		_send_sms
;; This function uses a non-reentrant model
;;
psect	text344
	file	"C:\keerthu\Pic16f877a_Revision\productionline\project.c"
	line	212
	global	__size_of_send_char_uart
	__size_of_send_char_uart	equ	__end_of_send_char_uart-_send_char_uart
	
_send_char_uart:	
	opt	stack 5
; Regs used in _send_char_uart: [wreg]
;send_char_uart@c stored from wreg
	movwf	(send_char_uart@c)
	line	213
	
l2303:	
;project.c: 213: while(!TXIF);
	goto	l640
	
l641:	
	
l640:	
	bcf	status, 5	;RP0=0, select bank0
	bcf	status, 6	;RP1=0, select bank0
	btfss	(100/8),(100)&7
	goto	u2521
	goto	u2520
u2521:
	goto	l640
u2520:
	goto	l2305
	
l642:	
	line	214
	
l2305:	
;project.c: 214: TXREG = c;
	movf	(send_char_uart@c),w
	movwf	(25)	;volatile
	line	215
	
l643:	
	return
	opt stack 0
GLOBAL	__end_of_send_char_uart
	__end_of_send_char_uart:
;; =============== function _send_char_uart ends ============

	signat	_send_char_uart,4216
	global	_dat
psect	text345,local,class=CODE,delta=2
global __ptext345
__ptext345:

;; *************** function _dat *****************
;; Defined at:
;;		line 138 in file "C:\keerthu\Pic16f877a_Revision\productionline\project.c"
;; Parameters:    Size  Location     Type
;;  b               1    wreg     unsigned char 
;; Auto vars:     Size  Location     Type
;;  b               1    2[COMMON] unsigned char 
;; Return value:  Size  Location     Type
;;		None               void
;; Registers used:
;;		wreg, status,2, status,0, btemp+1
;; Tracked objects:
;;		On entry : 0/0
;;		On exit  : 0/0
;;		Unchanged: 0/0
;; Data sizes:     COMMON   BANK0   BANK1   BANK3   BANK2
;;      Params:         0       0       0       0       0
;;      Locals:         1       0       0       0       0
;;      Temps:          2       0       0       0       0
;;      Totals:         3       0       0       0       0
;;Total ram usage:        3 bytes
;; Hardware stack levels used:    1
;; This function calls:
;;		Nothing
;; This function is called by:
;;		_show
;;		_show_number
;; This function uses a non-reentrant model
;;
psect	text345
	file	"C:\keerthu\Pic16f877a_Revision\productionline\project.c"
	line	138
	global	__size_of_dat
	__size_of_dat	equ	__end_of_dat-_dat
	
_dat:	
	opt	stack 6
; Regs used in _dat: [wreg+status,2+status,0+btemp+1]
;dat@b stored from wreg
	movwf	(dat@b)
	line	139
	
l2267:	
;project.c: 139: PORTD = (PORTD & 0x0F) | (b & 0xF0);
	movlw	(0F0h)
	andwf	(dat@b),w
	movwf	(??_dat+0)+0
	bcf	status, 5	;RP0=0, select bank0
	bcf	status, 6	;RP1=0, select bank0
	movf	(8),w
	andlw	0Fh
	iorwf	0+(??_dat+0)+0,w
	movwf	(8)	;volatile
	line	140
	
l2269:	
;project.c: 140: RB0 = 1; RB1 = 0; RB2 = 1; for(i=0;i<500;i++); RB2 = 0;
	bsf	(48/8),(48)&7
	
l2271:	
	bcf	(49/8),(49)&7
	
l2273:	
	bsf	(50/8),(50)&7
	
l2275:	
	movlw	low(0)
	movwf	(_i)
	movlw	high(0)
	movwf	((_i))+1
	
l2277:	
	movf	(_i+1),w
	xorlw	80h
	movwf	btemp+1
	movlw	(high(01F4h))^80h
	subwf	btemp+1,w
	skipz
	goto	u2475
	movlw	low(01F4h)
	subwf	(_i),w
u2475:

	skipc
	goto	u2471
	goto	u2470
u2471:
	goto	l2281
u2470:
	goto	l605
	
l2279:	
	goto	l605
	
l604:	
	
l2281:	
	movlw	low(01h)
	bcf	status, 5	;RP0=0, select bank0
	bcf	status, 6	;RP1=0, select bank0
	addwf	(_i),f
	skipnc
	incf	(_i+1),f
	movlw	high(01h)
	addwf	(_i+1),f
	
l2283:	
	movf	(_i+1),w
	xorlw	80h
	movwf	btemp+1
	movlw	(high(01F4h))^80h
	subwf	btemp+1,w
	skipz
	goto	u2485
	movlw	low(01F4h)
	subwf	(_i),w
u2485:

	skipc
	goto	u2481
	goto	u2480
u2481:
	goto	l2281
u2480:
	
l605:	
	bcf	status, 5	;RP0=0, select bank0
	bcf	status, 6	;RP1=0, select bank0
	bcf	(50/8),(50)&7
	line	142
	
l2285:	
;project.c: 142: PORTD = (PORTD & 0x0F) | ((b << 4) & 0xF0);
	movf	(dat@b),w
	movwf	(??_dat+0)+0
	movlw	04h
u2495:
	clrc
	rlf	(??_dat+0)+0,f
	addlw	-1
	skipz
	goto	u2495
	movlw	(0F0h)
	andwf	0+(??_dat+0)+0,w
	movwf	(??_dat+1)+0
	movf	(8),w
	andlw	0Fh
	iorwf	0+(??_dat+1)+0,w
	movwf	(8)	;volatile
	line	143
	
l2287:	
;project.c: 143: RB0 = 1; RB1 = 0; RB2 = 1; for(i=0;i<500;i++); RB2 = 0;
	bsf	(48/8),(48)&7
	
l2289:	
	bcf	(49/8),(49)&7
	
l2291:	
	bsf	(50/8),(50)&7
	
l2293:	
	movlw	low(0)
	movwf	(_i)
	movlw	high(0)
	movwf	((_i))+1
	
l2295:	
	movf	(_i+1),w
	xorlw	80h
	movwf	btemp+1
	movlw	(high(01F4h))^80h
	subwf	btemp+1,w
	skipz
	goto	u2505
	movlw	low(01F4h)
	subwf	(_i),w
u2505:

	skipc
	goto	u2501
	goto	u2500
u2501:
	goto	l2299
u2500:
	goto	l607
	
l2297:	
	goto	l607
	
l606:	
	
l2299:	
	movlw	low(01h)
	bcf	status, 5	;RP0=0, select bank0
	bcf	status, 6	;RP1=0, select bank0
	addwf	(_i),f
	skipnc
	incf	(_i+1),f
	movlw	high(01h)
	addwf	(_i+1),f
	
l2301:	
	movf	(_i+1),w
	xorlw	80h
	movwf	btemp+1
	movlw	(high(01F4h))^80h
	subwf	btemp+1,w
	skipz
	goto	u2515
	movlw	low(01F4h)
	subwf	(_i),w
u2515:

	skipc
	goto	u2511
	goto	u2510
u2511:
	goto	l2299
u2510:
	
l607:	
	bcf	status, 5	;RP0=0, select bank0
	bcf	status, 6	;RP1=0, select bank0
	bcf	(50/8),(50)&7
	line	144
	
l608:	
	return
	opt stack 0
GLOBAL	__end_of_dat
	__end_of_dat:
;; =============== function _dat ends ============

	signat	_dat,4216
	global	_uart_init
psect	text346,local,class=CODE,delta=2
global __ptext346
__ptext346:

;; *************** function _uart_init *****************
;; Defined at:
;;		line 200 in file "C:\keerthu\Pic16f877a_Revision\productionline\project.c"
;; Parameters:    Size  Location     Type
;;		None
;; Auto vars:     Size  Location     Type
;;		None
;; Return value:  Size  Location     Type
;;		None               void
;; Registers used:
;;		wreg
;; Tracked objects:
;;		On entry : 0/0
;;		On exit  : 0/0
;;		Unchanged: 0/0
;; Data sizes:     COMMON   BANK0   BANK1   BANK3   BANK2
;;      Params:         0       0       0       0       0
;;      Locals:         0       0       0       0       0
;;      Temps:          0       0       0       0       0
;;      Totals:         0       0       0       0       0
;;Total ram usage:        0 bytes
;; Hardware stack levels used:    1
;; This function calls:
;;		Nothing
;; This function is called by:
;;		_main
;; This function uses a non-reentrant model
;;
psect	text346
	file	"C:\keerthu\Pic16f877a_Revision\productionline\project.c"
	line	200
	global	__size_of_uart_init
	__size_of_uart_init	equ	__end_of_uart_init-_uart_init
	
_uart_init:	
	opt	stack 7
; Regs used in _uart_init: [wreg]
	line	201
	
l2253:	
;project.c: 201: TRISC6 = 0;
	bsf	status, 5	;RP0=1, select bank1
	bcf	status, 6	;RP1=0, select bank1
	bcf	(1086/8)^080h,(1086)&7
	line	202
;project.c: 202: TRISC7 = 1;
	bsf	(1087/8)^080h,(1087)&7
	line	203
	
l2255:	
;project.c: 203: SPBRG = 51;
	movlw	(033h)
	movwf	(153)^080h	;volatile
	line	204
	
l2257:	
;project.c: 204: BRGH = 1;
	bsf	(1218/8)^080h,(1218)&7
	line	205
	
l2259:	
;project.c: 205: SYNC = 0;
	bcf	(1220/8)^080h,(1220)&7
	line	206
	
l2261:	
;project.c: 206: SPEN = 1;
	bcf	status, 5	;RP0=0, select bank0
	bcf	status, 6	;RP1=0, select bank0
	bsf	(199/8),(199)&7
	line	207
	
l2263:	
;project.c: 207: TXEN = 1;
	bsf	status, 5	;RP0=1, select bank1
	bcf	status, 6	;RP1=0, select bank1
	bsf	(1221/8)^080h,(1221)&7
	line	208
	
l2265:	
;project.c: 208: CREN = 1;
	bcf	status, 5	;RP0=0, select bank0
	bcf	status, 6	;RP1=0, select bank0
	bsf	(196/8),(196)&7
	line	209
	
l637:	
	return
	opt stack 0
GLOBAL	__end_of_uart_init
	__end_of_uart_init:
;; =============== function _uart_init ends ============

	signat	_uart_init,88
	global	_cmd
psect	text347,local,class=CODE,delta=2
global __ptext347
__ptext347:

;; *************** function _cmd *****************
;; Defined at:
;;		line 129 in file "C:\keerthu\Pic16f877a_Revision\productionline\project.c"
;; Parameters:    Size  Location     Type
;;  a               1    wreg     unsigned char 
;; Auto vars:     Size  Location     Type
;;  a               1    2[COMMON] unsigned char 
;; Return value:  Size  Location     Type
;;		None               void
;; Registers used:
;;		wreg, status,2, status,0, btemp+1
;; Tracked objects:
;;		On entry : 0/0
;;		On exit  : 0/0
;;		Unchanged: 0/0
;; Data sizes:     COMMON   BANK0   BANK1   BANK3   BANK2
;;      Params:         0       0       0       0       0
;;      Locals:         1       0       0       0       0
;;      Temps:          2       0       0       0       0
;;      Totals:         3       0       0       0       0
;;Total ram usage:        3 bytes
;; Hardware stack levels used:    1
;; This function calls:
;;		Nothing
;; This function is called by:
;;		_main
;;		_lcd_init
;; This function uses a non-reentrant model
;;
psect	text347
	file	"C:\keerthu\Pic16f877a_Revision\productionline\project.c"
	line	129
	global	__size_of_cmd
	__size_of_cmd	equ	__end_of_cmd-_cmd
	
_cmd:	
	opt	stack 7
; Regs used in _cmd: [wreg+status,2+status,0+btemp+1]
;cmd@a stored from wreg
	movwf	(cmd@a)
	line	130
	
l2217:	
;project.c: 130: PORTD = (PORTD & 0x0F) | (a & 0xF0);
	movlw	(0F0h)
	andwf	(cmd@a),w
	movwf	(??_cmd+0)+0
	bcf	status, 5	;RP0=0, select bank0
	bcf	status, 6	;RP1=0, select bank0
	movf	(8),w
	andlw	0Fh
	iorwf	0+(??_cmd+0)+0,w
	movwf	(8)	;volatile
	line	131
	
l2219:	
;project.c: 131: RB0 = 0; RB1 = 0; RB2 = 1; for(i=0;i<500;i++); RB2 = 0;
	bcf	(48/8),(48)&7
	
l2221:	
	bcf	(49/8),(49)&7
	
l2223:	
	bsf	(50/8),(50)&7
	
l2225:	
	movlw	low(0)
	movwf	(_i)
	movlw	high(0)
	movwf	((_i))+1
	
l2227:	
	movf	(_i+1),w
	xorlw	80h
	movwf	btemp+1
	movlw	(high(01F4h))^80h
	subwf	btemp+1,w
	skipz
	goto	u2425
	movlw	low(01F4h)
	subwf	(_i),w
u2425:

	skipc
	goto	u2421
	goto	u2420
u2421:
	goto	l2231
u2420:
	goto	l598
	
l2229:	
	goto	l598
	
l597:	
	
l2231:	
	movlw	low(01h)
	bcf	status, 5	;RP0=0, select bank0
	bcf	status, 6	;RP1=0, select bank0
	addwf	(_i),f
	skipnc
	incf	(_i+1),f
	movlw	high(01h)
	addwf	(_i+1),f
	
l2233:	
	movf	(_i+1),w
	xorlw	80h
	movwf	btemp+1
	movlw	(high(01F4h))^80h
	subwf	btemp+1,w
	skipz
	goto	u2435
	movlw	low(01F4h)
	subwf	(_i),w
u2435:

	skipc
	goto	u2431
	goto	u2430
u2431:
	goto	l2231
u2430:
	
l598:	
	bcf	status, 5	;RP0=0, select bank0
	bcf	status, 6	;RP1=0, select bank0
	bcf	(50/8),(50)&7
	line	133
	
l2235:	
;project.c: 133: PORTD = (PORTD & 0x0F) | ((a << 4) & 0xF0);
	movf	(cmd@a),w
	movwf	(??_cmd+0)+0
	movlw	04h
u2445:
	clrc
	rlf	(??_cmd+0)+0,f
	addlw	-1
	skipz
	goto	u2445
	movlw	(0F0h)
	andwf	0+(??_cmd+0)+0,w
	movwf	(??_cmd+1)+0
	movf	(8),w
	andlw	0Fh
	iorwf	0+(??_cmd+1)+0,w
	movwf	(8)	;volatile
	line	134
	
l2237:	
;project.c: 134: RB0 = 0; RB1 = 0; RB2 = 1; for(i=0;i<500;i++); RB2 = 0;
	bcf	(48/8),(48)&7
	
l2239:	
	bcf	(49/8),(49)&7
	
l2241:	
	bsf	(50/8),(50)&7
	
l2243:	
	movlw	low(0)
	movwf	(_i)
	movlw	high(0)
	movwf	((_i))+1
	
l2245:	
	movf	(_i+1),w
	xorlw	80h
	movwf	btemp+1
	movlw	(high(01F4h))^80h
	subwf	btemp+1,w
	skipz
	goto	u2455
	movlw	low(01F4h)
	subwf	(_i),w
u2455:

	skipc
	goto	u2451
	goto	u2450
u2451:
	goto	l2249
u2450:
	goto	l600
	
l2247:	
	goto	l600
	
l599:	
	
l2249:	
	movlw	low(01h)
	bcf	status, 5	;RP0=0, select bank0
	bcf	status, 6	;RP1=0, select bank0
	addwf	(_i),f
	skipnc
	incf	(_i+1),f
	movlw	high(01h)
	addwf	(_i+1),f
	
l2251:	
	movf	(_i+1),w
	xorlw	80h
	movwf	btemp+1
	movlw	(high(01F4h))^80h
	subwf	btemp+1,w
	skipz
	goto	u2465
	movlw	low(01F4h)
	subwf	(_i),w
u2465:

	skipc
	goto	u2461
	goto	u2460
u2461:
	goto	l2249
u2460:
	
l600:	
	bcf	status, 5	;RP0=0, select bank0
	bcf	status, 6	;RP1=0, select bank0
	bcf	(50/8),(50)&7
	line	135
	
l601:	
	return
	opt stack 0
GLOBAL	__end_of_cmd
	__end_of_cmd:
;; =============== function _cmd ends ============

	signat	_cmd,4216
psect	text348,local,class=CODE,delta=2
global __ptext348
__ptext348:
	global	btemp
	btemp set 07Eh

	DABS	1,126,2	;btemp
	global	wtemp0
	wtemp0 set btemp
	end
